LX51 LINKER/LOCATER V4.58                                                               10/24/2019  23:49:40  PAGE 1


LX51 LINKER/LOCATER V4.58, INVOKED BY:
D:\KEILC51\C51\BIN\LX51.EXE oled.obj, adc.obj, uart.obj, main.obj, key.obj, e2prom.obj, tof10120.obj TO smartchair


CPU MODE:     8051 MODE
MEMORY MODEL: SMALL


INPUT MODULES INCLUDED:
  oled.obj (OLED)
         COMMENT TYPE 0: C51 V9.50a
  adc.obj (ADC)
         COMMENT TYPE 0: C51 V9.50a
  uart.obj (UART)
         COMMENT TYPE 0: C51 V9.50a
  main.obj (MAIN)
         COMMENT TYPE 0: C51 V9.50a
  key.obj (KEY)
         COMMENT TYPE 0: C51 V9.50a
  e2prom.obj (E2PROM)
         COMMENT TYPE 0: C51 V9.50a
  tof10120.obj (TOF10120)
         COMMENT TYPE 0: C51 V9.50a
  D:\KEILC51\C51\LIB\C51S.LIB (?C_STARTUP)
         COMMENT TYPE 1: A51 / ASM51 Assembler
  D:\KEILC51\C51\LIB\C51S.LIB (?C?CLDPTR)
         COMMENT TYPE 1: A51 / ASM51 Assembler
  D:\KEILC51\C51\LIB\C51S.LIB (?C?CLDOPTR)
         COMMENT TYPE 1: A51 / ASM51 Assembler
  D:\KEILC51\C51\LIB\C51S.LIB (?C?CSTPTR)
         COMMENT TYPE 1: A51 / ASM51 Assembler
  D:\KEILC51\C51\LIB\C51S.LIB (?C?CSTOPTR)
         COMMENT TYPE 1: A51 / ASM51 Assembler
  D:\KEILC51\C51\LIB\C51S.LIB (?C?UIDIV)
         COMMENT TYPE 1: A51 / ASM51 Assembler
  D:\KEILC51\C51\LIB\C51S.LIB (?C?SIDIV)
         COMMENT TYPE 1: A51 / ASM51 Assembler
  D:\KEILC51\C51\LIB\C51S.LIB (?C?ICALL)
         COMMENT TYPE 1: A51 / ASM51 Assembler
  D:\KEILC51\C51\LIB\C51S.LIB (PRINTF)
         COMMENT TYPE 1: A51 / ASM51 Assembler
  D:\KEILC51\C51\LIB\C51S.LIB (?C_INIT)
         COMMENT TYPE 1: A51 / ASM51 Assembler
  D:\KEILC51\C51\LIB\C51S.LIB (?C?PLDIIDATA)
         COMMENT TYPE 1: A51 / ASM51 Assembler
  D:\KEILC51\C51\LIB\C51S.LIB (?C?CCASE)
         COMMENT TYPE 1: A51 / ASM51 Assembler


ACTIVE MEMORY CLASSES OF MODULE:  smartchair (OLED)

BASE        START       END         USED      MEMORY CLASS
==========================================================
C:000000H   C:000000H   C:00FFFFH   00235AH   CODE
I:000000H   I:000000H   I:00007FH   00005DH   DATA
I:000000H   I:000000H   I:0000FFH   000001H   IDATA
I:000020H.0 I:000020H.0 I:00002FH.7 000001H.1 BIT


MEMORY MAP OF MODULE:  smartchair (OLED)


START     STOP      LENGTH    ALIGN  RELOC    MEMORY CLASS   SEGMENT NAME
=========================================================================

* * * * * * * * * * *   D A T A   M E M O R Y   * * * * * * * * * * * * *
LX51 LINKER/LOCATER V4.58                                                             10/24/2019  23:49:40  PAGE 2


000000H   000007H   000008H   ---    AT..     DATA           "REG BANK 0"
000008H   00001BH   000014H   BYTE   UNIT     DATA           _DATA_GROUP_
00001CH   00001DH   000002H   BYTE   UNIT     DATA           ?DT?_OLED_P16X16CH?OLED
00001EH   00001FH   000002H   BYTE   UNIT     DATA           ?DT?TESTE2PROM?E2PROM
000020H.0 000021H.0 000001H.1 BIT    UNIT     BIT            _BIT_GROUP_
000021H.1 000021H   000000H.7 ---    ---      **GAP**
000022H   000045H   000024H   BYTE   UNIT     DATA           ?DT?KEY
000046H   000052H   00000DH   BYTE   UNIT     DATA           ?DT?_DRAW_BMP?OLED
000053H   000057H   000005H   BYTE   UNIT     DATA           ?DT?_TOF_SERIAL_WRITE?E2PROM
000058H   00005CH   000005H   BYTE   UNIT     DATA           ?DT?_TOF_SERIAL_READ?E2PROM
00005DH   00005EH   000002H   BYTE   UNIT     DATA           ?DT?E2PROM
00005FH   00005FH   000001H   BYTE   UNIT     IDATA          ?STACK

* * * * * * * * * * *   C O D E   M E M O R Y   * * * * * * * * * * * * *
000000H   000002H   000003H   ---    OFFS..   CODE           ?CO??C_STARTUP?0
000003H   0007FFH   0007FDH   ---    ---      **GAP**
000800H   001C4DH   00144EH   BYTE   UNIT     CODE           ?CO?OLED
001C4EH   001FA9H   00035CH   BYTE   UNIT     CODE           ?PR?PRINTF?PRINTF
001FAAH   0020EAH   000141H   BYTE   UNIT     CODE           ?C?LIB_CODE
0020EBH   0021B4H   0000CAH   BYTE   UNIT     CODE           ?PR?TESTE2PROM?E2PROM
0021B5H   00227CH   0000C8H   BYTE   UNIT     CODE           ?PR?OLED_INIT?OLED
00227DH   002319H   00009DH   BYTE   UNIT     CODE           ?PR?_OLED_P8X16STR?OLED
00231AH   0023B5H   00009CH   BYTE   UNIT     CODE           ?PR?READKEYSTATUS?KEY
0023B6H   002441H   00008CH   BYTE   UNIT     CODE           ?C_C51STARTUP
002442H   0024C4H   000083H   BYTE   UNIT     CODE           ?PR?_DRAW_BMP?OLED
0024C5H   002532H   00006EH   BYTE   UNIT     CODE           ?PR?MAIN?MAIN
002533H   002597H   000065H   BYTE   UNIT     CODE           ?PR?_OLED_SHOW_NUM?OLED
002598H   0025E7H   000050H   BYTE   UNIT     CODE           ?PR?GET_KEY_LEVEL?KEY
0025E8H   00262BH   000044H   BYTE   UNIT     CODE           ?PR?_OLED_P16X16CH?OLED
00262CH   00266CH   000041H   BYTE   UNIT     CODE           ?PR?_MYPARAMINIT?E2PROM
00266DH   0026A8H   00003CH   BYTE   UNIT     CODE           ?PR?TASK_KEY_SCAN?KEY
0026A9H   0026E1H   000039H   BYTE   UNIT     CODE           ?PR?_OLED_P6X8STR?OLED
0026E2H   00270FH   00002EH   BYTE   UNIT     CODE           ?PR?_IIC_WRITE_BYTE?TOF10120
002710H   00273CH   00002DH   BYTE   UNIT     CODE           ?CO?E2PROM
00273DH   002769H   00002DH   BYTE   UNIT     CODE           ?PR?_GETDISTANCE?TOF10120
00276AH   002794H   00002BH   BYTE   UNIT     CODE           ?PR?_TOF_SERIAL_READ?E2PROM
002795H   0027BEH   00002AH   BYTE   UNIT     CODE           ?PR?_TOF_READ_BYTE?TOF10120
0027BFH   0027E7H   000029H   BYTE   UNIT     CODE           ?PR?_GETADCRESULT?ADC
0027E8H   00280FH   000028H   BYTE   UNIT     CODE           ?CO?KEY
002810H   002837H   000028H   BYTE   UNIT     CODE           ?C_INITSEG
002838H   00285FH   000028H   BYTE   UNIT     CODE           ?PR?_TOF_WRITE_BYTE?TOF10120
002860H   002885H   000026H   BYTE   UNIT     CODE           ?PR?_WRITE_IIC_BYTE?OLED
002886H   0028A8H   000023H   BYTE   UNIT     CODE           ?PR?IIC_READ_BYTE?TOF10120
0028A9H   0028CAH   000022H   BYTE   UNIT     CODE           ?PR?IIC_ACK?TOF10120
0028CBH   0028E9H   00001FH   BYTE   UNIT     CODE           ?PR?_TOF_SERIAL_WRITE?E2PROM
0028EAH   002907H   00001EH   BYTE   UNIT     CODE           ?PR?_OLED_SET_POS?OLED
002908H   002924H   00001DH   BYTE   UNIT     CODE           ?PR?_OLED_WRDAT?OLED
002925H   002941H   00001DH   BYTE   UNIT     CODE           ?PR?_OLED_WRCMD?OLED
002942H   00295CH   00001BH   BYTE   UNIT     CODE           ?PR?_DELAY?ADC
00295DH   002977H   00001BH   BYTE   UNIT     CODE           ?CO?MAIN
002978H   002992H   00001BH   BYTE   UNIT     CODE           ?PR?_DELAY_US?TOF10120
002993H   0029ACH   00001AH   BYTE   UNIT     CODE           ?PR?_DELAY_MS?TOF10120
0029ADH   0029C4H   000018H   BYTE   UNIT     CODE           ?PR?_OLED_FILL?OLED
0029C5H   0029DBH   000017H   BYTE   UNIT     CODE           ?PR?UARTINIT?UART
0029DCH   0029F2H   000017H   BYTE   UNIT     CODE           ?PR?_DELAY_MS?MAIN
0029F3H   002A09H   000017H   BYTE   UNIT     CODE           ?PR?_IAPREADBYTE?E2PROM
002A0AH   002A20H   000017H   BYTE   UNIT     CODE           ?PR?_GETPARAM?E2PROM
002A21H   002A36H   000016H   BYTE   UNIT     CODE           ?PR?OLED_CLS?OLED
002A37H   002A4CH   000016H   BYTE   UNIT     CODE           ?PR?_IAPWRITEBYTE?E2PROM
002A4DH   002A62H   000016H   BYTE   UNIT     CODE           ?PR?_SETPARAM?E2PROM
002A63H   002A76H   000014H   BYTE   UNIT     CODE           ?PR?_DELAY?OLED
002A77H   002A8AH   000014H   BYTE   UNIT     CODE           ?PR?_DELAY?E2PROM
002A8BH   002A9EH   000014H   BYTE   UNIT     CODE           ?PR?_IAPERASESECTOR?E2PROM
002A9FH   002AB0H   000012H   BYTE   UNIT     CODE           ?PR?IIC_STOP?TOF10120
002AB1H   002ABFH   00000FH   BYTE   UNIT     CODE           ?PR?INITADC?ADC
LX51 LINKER/LOCATER V4.58                                                             10/24/2019  23:49:40  PAGE 3


002AC0H   002ACEH   00000FH   BYTE   UNIT     CODE           ?PR?IIC_START?TOF10120
002ACFH   002ADCH   00000EH   BYTE   UNIT     CODE           ?PR?IO_INIT?TOF10120
002ADDH   002AEAH   00000EH   BYTE   UNIT     CODE           ?PR?IIC_NACK?TOF10120
002AEBH   002AF7H   00000DH   BYTE   UNIT     CODE           ?PR?IAPIDLE?E2PROM
002AF8H   002B02H   00000BH   BYTE   UNIT     CODE           ?PR?DELAY1MS?MAIN
002B03H   002B0DH   00000BH   BYTE   UNIT     CODE           ?PR?DELAY1MS?TOF10120
002B0EH   002B16H   000009H   BYTE   UNIT     CODE           ?PR?DELAY1MS?OLED
002B17H   002B1FH   000009H   BYTE   UNIT     CODE           ?PR?IIC_START?OLED
002B20H   002B28H   000009H   BYTE   UNIT     CODE           ?PR?IIC_STOP?OLED
002B29H   002B30H   000008H   BYTE   UNIT     CODE           ?PR?_UART1_SENDONEBYTE?UART
002B31H   002B38H   000008H   BYTE   UNIT     CODE           ?PR?_PUTCHAR?UART
002B39H   002B3EH   000006H   BYTE   UNIT     CODE           ?PR?KEY0_READPIN?KEY
002B3FH   002B44H   000006H   BYTE   UNIT     CODE           ?PR?KEY1_READPIN?KEY
002B45H   002B4AH   000006H   BYTE   UNIT     CODE           ?PR?KEY2_READPIN?KEY
002B4BH   002B50H   000006H   BYTE   UNIT     CODE           ?PR?KEY3_READPIN?KEY
002B51H   002B53H   000003H   BYTE   UNIT     CODE           ?PR?DELAY1US?TOF10120
002B54H   002B56H   000003H   BYTE   UNIT     CODE           ?PR?TOF_INIT?TOF10120



OVERLAY MAP OF MODULE:   smartchair (OLED)


FUNCTION/MODULE                BIT_GROUP   DATA_GROUP 
--> CALLED FUNCTION/MODULE    START  STOP  START  STOP
======================================================
?C_C51STARTUP                 ----- -----  ----- -----
  +--> MAIN/MAIN
  +--> ?C_INITSEG

MAIN/MAIN                     ----- -----  ----- -----
  +--> UARTINIT/UART
  +--> OLED_INIT/OLED
  +--> INITADC/ADC
  +--> TOF_INIT/TOF10120
  +--> _TOF_WRITE_BYTE/TOF10120
  +--> _MYPARAMINIT/E2PROM
  +--> ?CO?MAIN
  +--> _OLED_P8X16STR/OLED
  +--> _OLED_SHOW_NUM/OLED
  +--> _GETDISTANCE/TOF10120
  +--> PRINTF/PRINTF
  +--> TASK_KEY_SCAN/KEY
  +--> _DELAY_MS/MAIN

UARTINIT/UART                 ----- -----  ----- -----

OLED_INIT/OLED                ----- -----  ----- -----
  +--> _OLED_WRCMD/OLED
  +--> _OLED_FILL/OLED
  +--> _OLED_SET_POS/OLED
  +--> ?CO?OLED
  +--> _OLED_P8X16STR/OLED
  +--> _DELAY/OLED

_OLED_WRCMD/OLED              ----- -----  ----- -----
  +--> _WRITE_IIC_BYTE/OLED
  +--> IIC_STOP/OLED

_WRITE_IIC_BYTE/OLED          ----- -----  ----- -----
  +--> IIC_START/OLED

IIC_START/OLED                ----- -----  ----- -----

IIC_STOP/OLED                 ----- -----  ----- -----
LX51 LINKER/LOCATER V4.58                                                             10/24/2019  23:49:40  PAGE 4



_OLED_FILL/OLED               ----- -----  ----- -----
  +--> _OLED_WRCMD/OLED
  +--> _OLED_WRDAT/OLED

_OLED_WRDAT/OLED              ----- -----  ----- -----
  +--> ?CO?OLED
  +--> _WRITE_IIC_BYTE/OLED
  +--> IIC_STOP/OLED

?CO?OLED                      ----- -----  ----- -----

_OLED_SET_POS/OLED            ----- -----  ----- -----
  +--> _OLED_WRCMD/OLED

_OLED_P8X16STR/OLED           ----- -----  0008H 000FH
  +--> _OLED_SET_POS/OLED
  +--> ?CO?OLED
  +--> _OLED_WRDAT/OLED

_DELAY/OLED                   ----- -----  ----- -----
  +--> DELAY1MS/OLED

DELAY1MS/OLED                 ----- -----  ----- -----

INITADC/ADC                   ----- -----  ----- -----
  +--> _DELAY/ADC

_DELAY/ADC                    ----- -----  ----- -----

TOF_INIT/TOF10120             ----- -----  ----- -----
  +--> IO_INIT/TOF10120

IO_INIT/TOF10120              ----- -----  ----- -----
  +--> _DELAY_US/TOF10120

_DELAY_US/TOF10120            ----- -----  ----- -----
  +--> DELAY1US/TOF10120

DELAY1US/TOF10120             ----- -----  ----- -----

_TOF_WRITE_BYTE/TOF10120      ----- -----  ----- -----
  +--> IIC_ACK/TOF10120
  +--> _IIC_WRITE_BYTE/TOF10120
  +--> _DELAY_US/TOF10120
  +--> IIC_STOP/TOF10120
  +--> _DELAY_MS/TOF10120

IIC_ACK/TOF10120              ----- -----  000AH 000AH
  +--> IIC_START/TOF10120
  +--> _IIC_WRITE_BYTE/TOF10120
  +--> _DELAY_MS/TOF10120

IIC_START/TOF10120            ----- -----  ----- -----
  +--> _DELAY_US/TOF10120

_IIC_WRITE_BYTE/TOF10120      ----- -----  ----- -----
  +--> _DELAY_US/TOF10120

_DELAY_MS/TOF10120            ----- -----  ----- -----
  +--> DELAY1MS/TOF10120

DELAY1MS/TOF10120             ----- -----  ----- -----

IIC_STOP/TOF10120             ----- -----  ----- -----
LX51 LINKER/LOCATER V4.58                                                             10/24/2019  23:49:40  PAGE 5


  +--> _DELAY_US/TOF10120

_MYPARAMINIT/E2PROM           ----- -----  0008H 000AH
  +--> _IAPREADBYTE/E2PROM
  +--> _IAPERASESECTOR/E2PROM
  +--> _IAPWRITEBYTE/E2PROM
  +--> _SETPARAM/E2PROM
  +--> _GETPARAM/E2PROM

_IAPREADBYTE/E2PROM           ----- -----  ----- -----
  +--> IAPIDLE/E2PROM

IAPIDLE/E2PROM                ----- -----  ----- -----

_IAPERASESECTOR/E2PROM        ----- -----  ----- -----
  +--> IAPIDLE/E2PROM

_IAPWRITEBYTE/E2PROM          ----- -----  ----- -----
  +--> IAPIDLE/E2PROM

_SETPARAM/E2PROM              ----- -----  ----- -----
  +--> _IAPWRITEBYTE/E2PROM

_GETPARAM/E2PROM              ----- -----  ----- -----
  +--> _IAPREADBYTE/E2PROM

?CO?MAIN                      ----- -----  ----- -----

_OLED_SHOW_NUM/OLED           ----- -----  0008H 000FH
  +--> _OLED_P6X8STR/OLED

_OLED_P6X8STR/OLED            ----- -----  0010H 0010H
  +--> _OLED_SET_POS/OLED
  +--> ?CO?OLED
  +--> _OLED_WRDAT/OLED

_GETDISTANCE/TOF10120         ----- -----  0008H 0009H
  +--> _TOF_READ_BYTE/TOF10120

_TOF_READ_BYTE/TOF10120       ----- -----  ----- -----
  +--> IIC_ACK/TOF10120
  +--> _IIC_WRITE_BYTE/TOF10120
  +--> _DELAY_US/TOF10120
  +--> IIC_START/TOF10120
  +--> IIC_READ_BYTE/TOF10120
  +--> IIC_STOP/TOF10120

IIC_READ_BYTE/TOF10120        ----- -----  ----- -----
  +--> _DELAY_US/TOF10120

PRINTF/PRINTF                 20H.0 21H.0  0008H 001BH
  +--> _PUTCHAR/UART

_PUTCHAR/UART                 ----- -----  ----- -----

TASK_KEY_SCAN/KEY             ----- -----  ----- -----
  +--> READKEYSTATUS/KEY
  +--> ?CO?KEY
  +--> PRINTF/PRINTF

READKEYSTATUS/KEY             ----- -----  ----- -----
  +--> GET_KEY_LEVEL/KEY

GET_KEY_LEVEL/KEY             ----- -----  0008H 0008H

LX51 LINKER/LOCATER V4.58                                                             10/24/2019  23:49:40  PAGE 6


?CO?KEY                       ----- -----  ----- -----

_DELAY_MS/MAIN                ----- -----  0008H 0009H
  +--> DELAY1MS/MAIN

DELAY1MS/MAIN                 ----- -----  ----- -----

?C_INITSEG                    ----- -----  ----- -----
  +--> KEY0_READPIN/KEY
  +--> KEY1_READPIN/KEY
  +--> KEY2_READPIN/KEY
  +--> KEY3_READPIN/KEY

KEY0_READPIN/KEY              ----- -----  ----- -----

KEY1_READPIN/KEY              ----- -----  ----- -----

KEY2_READPIN/KEY              ----- -----  ----- -----

KEY3_READPIN/KEY              ----- -----  ----- -----



PUBLIC SYMBOLS OF MODULE:  smartchair (OLED)


      VALUE       CLASS    TYPE      PUBLIC SYMBOL NAME
      =================================================
      00000046H   DATA     BYTE      ?_Draw_BMP?BYTE
      00000008H   DATA     ---       ?_PRINTF517?BYTE
      00000008H   DATA     ---       ?_PRINTF?BYTE
      00000008H   DATA     ---       ?_SPRINTF517?BYTE
      00000008H   DATA     ---       ?_SPRINTF?BYTE
      00000058H   DATA     BYTE      ?_TOF_Serial_Read?BYTE
      00000053H   DATA     BYTE      ?_TOF_Serial_Write?BYTE
      010020C5H   CODE     ---       ?C?CCASE
      01001FC3H   CODE     ---       ?C?CLDOPTR
      01001FAAH   CODE     ---       ?C?CLDPTR
      00000000H   NUMBER   ---       ?C?CODESEG
      01002002H   CODE     ---       ?C?CSTOPTR
      01001FF0H   CODE     ---       ?C?CSTPTR
      010020AFH   CODE     ---       ?C?ICALL
      010020B3H   CODE     ---       ?C?ICALL2
      010020B5H   CODE     ---       ?C?PLDIIDATA
      01002079H   CODE     ---       ?C?SIDIV
      01002024H   CODE     ---       ?C?UIDIV
      00000000H   NUMBER   ---       ?C?XDATASEG
      010023FDH   CODE     ---       ?C_START
      01000000H   CODE     ---       ?C_STARTUP
      01002942H   CODE     ---       _Delay
      010029DCH   CODE     ---       _delay_ms
      01002442H   CODE     ---       _Draw_BMP
      010027BFH   CODE     ---       _GetADCResult
      0100273DH   CODE     ---       _GetDistance
      01002A0AH   CODE     ---       _GetParam
      01002A8BH   CODE     ---       _IapEraseSector
      010029F3H   CODE     ---       _IapReadByte
      01002A37H   CODE     ---       _IapWriteByte
      010026E2H   CODE     ---       _IIC_Write_Byte
      0100262CH   CODE     ---       _MyParamInit
      010029ADH   CODE     ---       _OLED_Fill
      010025E8H   CODE     ---       _OLED_P16x16Ch
      010026A9H   CODE     ---       _OLED_P6x8Str
      01002283H   CODE     ---       _OLED_P8x16Str
      010028EAH   CODE     ---       _OLED_Set_Pos
LX51 LINKER/LOCATER V4.58                                                             10/24/2019  23:49:40  PAGE 7


      01002533H   CODE     ---       _oled_show_num
      01002932H   CODE     ---       _OLED_WrCmd
      01002915H   CODE     ---       _OLED_WrDat
      01001CB0H   CODE     ---       _PRINTF
      01001CB0H   CODE     ---       _PRINTF517
      01002B31H   CODE     ---       _putchar
      01002A4DH   CODE     ---       _SetParam
      01001CAAH   CODE     ---       _SPRINTF
      01001CAAH   CODE     ---       _SPRINTF517
      01002795H   CODE     ---       _TOF_Read_Byte
      0100276AH   CODE     ---       _TOF_Serial_Read
      010028CBH   CODE     ---       _TOF_Serial_Write
      01002838H   CODE     ---       _TOF_Write_Byte
      01002B29H   CODE     ---       _UART1_SendOneByte
      01002867H   CODE     ---       _Write_IIC_Byte
*SFR* 000000D0H.6 DATA     BIT       AC
*SFR* 000000E0H   DATA     BYTE      ACC
*SFR* 000000BCH   DATA     BYTE      ADC_CONTR
*SFR* 000000BDH   DATA     BYTE      ADC_RES
*SFR* 000000BEH   DATA     BYTE      ADC_RESL
*SFR* 0000008EH   DATA     BYTE      AUXR
*SFR* 000000A2H   DATA     BYTE      AUXR1
*SFR* 000000F0H   DATA     BYTE      B
      0100144EH   CODE     ---       BMP1
      0100184EH   CODE     ---       BMP2
*SFR* 0000009CH   DATA     BYTE      BRT
*SFR* 000000A1H   DATA     BYTE      BUS_SPEED
*SFR* 000000FAH   DATA     BYTE      CCAP0H
*SFR* 000000EAH   DATA     BYTE      CCAP0L
*SFR* 000000FBH   DATA     BYTE      CCAP1H
*SFR* 000000EBH   DATA     BYTE      CCAP1L
*SFR* 000000DAH   DATA     BYTE      CCAPM0
*SFR* 000000DBH   DATA     BYTE      CCAPM1
*SFR* 000000D8H   DATA     BIT       CCF0
*SFR* 000000D8H.1 DATA     BIT       CCF1
*SFR* 000000D8H   DATA     BYTE      CCON
*SFR* 000000D8H.7 DATA     BIT       CF
*SFR* 000000F9H   DATA     BYTE      CH
*SFR* 000000E9H   DATA     BYTE      CL
*SFR* 00000097H   DATA     BYTE      CLK_DIV
*SFR* 000000D9H   DATA     BYTE      CMOD
*SFR* 000000D8H.6 DATA     BIT       CR
*SFR* 000000D0H.7 DATA     BIT       CY
      01002AF8H   CODE     ---       Delay1ms
*SFR* 00000083H   DATA     BYTE      DPH
*SFR* 00000082H   DATA     BYTE      DPL
*SFR* 000000A8H.7 DATA     BIT       EA
*SFR* 000000A8H.5 DATA     BIT       EADC
*SFR* 000000A8H.6 DATA     BIT       ELVD
*SFR* 000000A8H.4 DATA     BIT       ES
*SFR* 000000A8H.1 DATA     BIT       ET0
*SFR* 000000A8H.3 DATA     BIT       ET1
*SFR* 000000A8H   DATA     BIT       EX0
*SFR* 000000A8H.2 DATA     BIT       EX1
*SFR* 000000D0H.5 DATA     BIT       F0
      01000836H   CODE     ---       F16x16
      01000C36H   CODE     ---       F6x8
      01000E5EH   CODE     ---       F8X16
*SFR* 000000C3H   DATA     BYTE      IAP_ADDRH
*SFR* 000000C4H   DATA     BYTE      IAP_ADDRL
*SFR* 000000C5H   DATA     BYTE      IAP_CMD
*SFR* 000000C7H   DATA     BYTE      IAP_CONTR
*SFR* 000000C2H   DATA     BYTE      IAP_DATA
*SFR* 000000C6H   DATA     BYTE      IAP_TRIG
      01002AEBH   CODE     ---       IapIdle
LX51 LINKER/LOCATER V4.58                                                             10/24/2019  23:49:40  PAGE 8


*SFR* 000000A8H   DATA     BYTE      IE
*SFR* 00000088H.1 DATA     BIT       IE0
*SFR* 00000088H.3 DATA     BIT       IE1
*SFR* 000000AFH   DATA     BYTE      IE2
      010028B1H   CODE     ---       IIC_Ack
      01002ADDH   CODE     ---       IIC_NAck
      01002886H   CODE     ---       IIC_Read_Byte
*SFR* 000000A0H   DATA     BIT       IIC_SCL
*SFR* 000000A0H.1 DATA     BIT       IIC_SDA
      01002B17H   CODE     ---       IIC_Start
      01002B20H   CODE     ---       IIC_Stop
      01002AB1H   CODE     ---       InitADC
      01002ACFH   CODE     ---       IO_Init
*SFR* 000000B8H   DATA     BYTE      IP
*SFR* 000000B5H   DATA     BYTE      IP2
*SFR* 000000B7H   DATA     BYTE      IPH
*SFR* 000000B6H   DATA     BYTE      IPH2
*SFR* 00000088H   DATA     BIT       IT0
*SFR* 00000088H.2 DATA     BIT       IT1
      00000022H   DATA     ---       Key_Buf
      010024C5H   CODE     ---       main
      0000005DH   DATA     ---       myparam
      01002A21H   CODE     ---       OLED_CLS
      010021B5H   CODE     ---       OLED_Init
*SFR* 000000D0H.2 DATA     BIT       OV
*SFR* 000000D0H   DATA     BIT       P
*SFR* 00000080H   DATA     BYTE      P0
*SFR* 00000080H   DATA     BIT       P00
*SFR* 00000080H.1 DATA     BIT       P01
*SFR* 00000080H.2 DATA     BIT       P02
*SFR* 00000080H.3 DATA     BIT       P03
*SFR* 00000080H.4 DATA     BIT       P04
*SFR* 00000080H.5 DATA     BIT       P05
*SFR* 00000080H.6 DATA     BIT       P06
*SFR* 00000080H.7 DATA     BIT       P07
*SFR* 00000094H   DATA     BYTE      P0M0
*SFR* 00000093H   DATA     BYTE      P0M1
*SFR* 00000090H   DATA     BYTE      P1
*SFR* 00000090H   DATA     BIT       P10
*SFR* 00000090H.1 DATA     BIT       P11
*SFR* 00000090H.2 DATA     BIT       P12
*SFR* 00000090H.3 DATA     BIT       P13
*SFR* 00000090H.4 DATA     BIT       P14
*SFR* 00000090H.5 DATA     BIT       P15
*SFR* 00000090H.6 DATA     BIT       P16
*SFR* 00000090H.7 DATA     BIT       P17
*SFR* 0000009DH   DATA     BYTE      P1ASF
*SFR* 00000092H   DATA     BYTE      P1M0
*SFR* 00000091H   DATA     BYTE      P1M1
*SFR* 000000A0H   DATA     BYTE      P2
*SFR* 000000A0H   DATA     BIT       P20
*SFR* 000000A0H.1 DATA     BIT       P21
*SFR* 000000A0H.2 DATA     BIT       P22
*SFR* 000000A0H.3 DATA     BIT       P23
*SFR* 000000A0H.4 DATA     BIT       P24
*SFR* 000000A0H.5 DATA     BIT       P25
*SFR* 000000A0H.6 DATA     BIT       P26
*SFR* 000000A0H.7 DATA     BIT       P27
*SFR* 00000096H   DATA     BYTE      P2M0
*SFR* 00000095H   DATA     BYTE      P2M1
*SFR* 000000B0H   DATA     BYTE      P3
*SFR* 000000B0H   DATA     BIT       P30
*SFR* 000000B0H.1 DATA     BIT       P31
*SFR* 000000B0H.2 DATA     BIT       P32
*SFR* 000000B0H.3 DATA     BIT       P33
LX51 LINKER/LOCATER V4.58                                                             10/24/2019  23:49:40  PAGE 9


*SFR* 000000B0H.4 DATA     BIT       P34
*SFR* 000000B0H.5 DATA     BIT       P35
*SFR* 000000B0H.6 DATA     BIT       P36
*SFR* 000000B0H.7 DATA     BIT       P37
*SFR* 000000B2H   DATA     BYTE      P3M0
*SFR* 000000B1H   DATA     BYTE      P3M1
*SFR* 000000C0H   DATA     BYTE      P4
*SFR* 000000C0H   DATA     BIT       P40
*SFR* 000000C0H.1 DATA     BIT       P41
*SFR* 000000C0H.2 DATA     BIT       P42
*SFR* 000000C0H.3 DATA     BIT       P43
*SFR* 000000C0H.4 DATA     BIT       P44
*SFR* 000000C0H.5 DATA     BIT       P45
*SFR* 000000C0H.6 DATA     BIT       P46
*SFR* 000000C0H.7 DATA     BIT       P47
*SFR* 000000B4H   DATA     BYTE      P4M0
*SFR* 000000B3H   DATA     BYTE      P4M1
*SFR* 000000BBH   DATA     BYTE      P4SW
*SFR* 000000C8H   DATA     BYTE      P5
*SFR* 000000C8H   DATA     BIT       P50
*SFR* 000000C8H.1 DATA     BIT       P51
*SFR* 000000C8H.2 DATA     BIT       P52
*SFR* 000000C8H.3 DATA     BIT       P53
*SFR* 000000CAH   DATA     BYTE      P5M0
*SFR* 000000C9H   DATA     BYTE      P5M1
*SFR* 000000B8H.5 DATA     BIT       PADC
*SFR* 000000F2H   DATA     BYTE      PCA_PWM0
*SFR* 000000F3H   DATA     BYTE      PCA_PWM1
*SFR* 00000087H   DATA     BYTE      PCON
*SFR* 000000B8H.6 DATA     BIT       PLVD
*SFR* 000000B8H.7 DATA     BIT       PPCA
*SFR* 000000B8H.4 DATA     BIT       PS
*SFR* 000000D0H   DATA     BYTE      PSW
*SFR* 000000B8H.1 DATA     BIT       PT0
*SFR* 000000B8H.3 DATA     BIT       PT1
*SFR* 000000B8H   DATA     BIT       PX0
*SFR* 000000B8H.2 DATA     BIT       PX1
*SFR* 00000098H.2 DATA     BIT       RB8
      0100231AH   CODE     ---       ReadKeyStatus
*SFR* 00000098H.4 DATA     BIT       REN
*SFR* 00000098H   DATA     BIT       RI
*SFR* 000000D0H.3 DATA     BIT       RS0
*SFR* 000000D0H.4 DATA     BIT       RS1
*SFR* 0000009BH   DATA     BYTE      S2BUF
*SFR* 0000009AH   DATA     BYTE      S2CON
*SFR* 000000A9H   DATA     BYTE      SADDR
*SFR* 000000B9H   DATA     BYTE      SADEN
*SFR* 00000099H   DATA     BYTE      SBUF
*SFR* 000000A0H.6 DATA     BIT       SCL
*SFR* 00000098H   DATA     BYTE      SCON
*SFR* 000000A0H.5 DATA     BIT       SDA
*SFR* 00000098H.7 DATA     BIT       SM0
*SFR* 00000098H.6 DATA     BIT       SM1
*SFR* 00000098H.5 DATA     BIT       SM2
*SFR* 00000081H   DATA     BYTE      SP
*SFR* 000000CEH   DATA     BYTE      SPCTL
*SFR* 000000CFH   DATA     BYTE      SPDAT
*SFR* 000000CDH   DATA     BYTE      SPSTAT
      0100266DH   CODE     ---       Task_KEY_Scan
*SFR* 00000098H.3 DATA     BIT       TB8
*SFR* 00000088H   DATA     BYTE      TCON
      010020EBH   CODE     ---       TestE2PROM
*SFR* 00000088H.5 DATA     BIT       TF0
*SFR* 00000088H.7 DATA     BIT       TF1
*SFR* 0000008CH   DATA     BYTE      TH0
LX51 LINKER/LOCATER V4.58                                                             10/24/2019  23:49:40  PAGE 10


*SFR* 0000008DH   DATA     BYTE      TH1
*SFR* 00000098H.1 DATA     BIT       TI
*SFR* 0000008AH   DATA     BYTE      TL0
*SFR* 0000008BH   DATA     BYTE      TL1
*SFR* 00000089H   DATA     BYTE      TMOD
      01002B54H   CODE     ---       TOF_Init
*SFR* 00000088H.4 DATA     BIT       TR0
*SFR* 00000088H.6 DATA     BIT       TR1
      010029C5H   CODE     ---       UartInit
*SFR* 0000008FH   DATA     BYTE      WAKE_CLKO
*SFR* 000000C1H   DATA     BYTE      WDT_CONTR



SYMBOL TABLE OF MODULE:  smartchair (OLED)

      VALUE       REP       CLASS    TYPE      SYMBOL NAME
      ====================================================
      ---         MODULE    ---      ---       OLED
      0100184EH   PUBLIC    CODE     ---       BMP2
      0100144EH   PUBLIC    CODE     ---       BMP1
      01000E5EH   PUBLIC    CODE     ---       F8X16
      01000C36H   PUBLIC    CODE     ---       F6x8
      01000836H   PUBLIC    CODE     ---       F16x16
      01002533H   PUBLIC    CODE     ---       _oled_show_num
      00000046H   PUBLIC    DATA     BYTE      ?_Draw_BMP?BYTE
      01002442H   PUBLIC    CODE     ---       _Draw_BMP
      010025E8H   PUBLIC    CODE     ---       _OLED_P16x16Ch
      01002283H   PUBLIC    CODE     ---       _OLED_P8x16Str
      010026A9H   PUBLIC    CODE     ---       _OLED_P6x8Str
      010021B5H   PUBLIC    CODE     ---       OLED_Init
      01002A21H   PUBLIC    CODE     ---       OLED_CLS
      010029ADH   PUBLIC    CODE     ---       _OLED_Fill
      010028EAH   PUBLIC    CODE     ---       _OLED_Set_Pos
      01002932H   PUBLIC    CODE     ---       _OLED_WrCmd
      01002915H   PUBLIC    CODE     ---       _OLED_WrDat
      01002867H   PUBLIC    CODE     ---       _Write_IIC_Byte
      01002B20H   PUBLIC    CODE     ---       IIC_Stop
      01002B17H   PUBLIC    CODE     ---       IIC_Start
      00000092H   SFRSYM    DATA     BYTE      P1M0
      00000093H   SFRSYM    DATA     BYTE      P0M1
      00000096H   SFRSYM    DATA     BYTE      P2M0
      00000091H   SFRSYM    DATA     BYTE      P1M1
      00000080H   SFRSYM    DATA     BYTE      P0
      000000B2H   SFRSYM    DATA     BYTE      P3M0
      00000095H   SFRSYM    DATA     BYTE      P2M1
      00000090H   SFRSYM    DATA     BYTE      P1
      000000B4H   SFRSYM    DATA     BYTE      P4M0
      000000B1H   SFRSYM    DATA     BYTE      P3M1
      000000A0H   SFRSYM    DATA     BYTE      P2
      000000CAH   SFRSYM    DATA     BYTE      P5M0
      000000B3H   SFRSYM    DATA     BYTE      P4M1
      000000B0H   SFRSYM    DATA     BYTE      P3
      000000C9H   SFRSYM    DATA     BYTE      P5M1
      000000C0H   SFRSYM    DATA     BYTE      P4
      000000D0H.6 SFRSYM    DATA     BIT       AC
      000000C8H   SFRSYM    DATA     BYTE      P5
      000000A8H.7 SFRSYM    DATA     BIT       EA
      000000CEH   SFRSYM    DATA     BYTE      SPCTL
      000000D8H.7 SFRSYM    DATA     BIT       CF
      000000F9H   SFRSYM    DATA     BYTE      CH
      000000A8H.5 SFRSYM    DATA     BIT       EADC
      000000A8H   SFRSYM    DATA     BYTE      IE
      000000E9H   SFRSYM    DATA     BYTE      CL
      000000C5H   SFRSYM    DATA     BYTE      IAP_CMD
LX51 LINKER/LOCATER V4.58                                                             10/24/2019  23:49:40  PAGE 11


      000000FAH   SFRSYM    DATA     BYTE      CCAP0H
      000000FBH   SFRSYM    DATA     BYTE      CCAP1H
      000000BDH   SFRSYM    DATA     BYTE      ADC_RES
      000000B6H   SFRSYM    DATA     BYTE      IPH2
      000000EAH   SFRSYM    DATA     BYTE      CCAP0L
      000000D8H.6 SFRSYM    DATA     BIT       CR
      000000EBH   SFRSYM    DATA     BYTE      CCAP1L
      000000DAH   SFRSYM    DATA     BYTE      CCAPM0
      000000DBH   SFRSYM    DATA     BYTE      CCAPM1
      000000A8H.4 SFRSYM    DATA     BIT       ES
      000000B8H.5 SFRSYM    DATA     BIT       PADC
      000000B8H   SFRSYM    DATA     BYTE      IP
      00000098H   SFRSYM    DATA     BIT       RI
      000000D0H.7 SFRSYM    DATA     BIT       CY
      00000098H.1 SFRSYM    DATA     BIT       TI
      00000097H   SFRSYM    DATA     BYTE      CLK_DIV
      000000C3H   SFRSYM    DATA     BYTE      IAP_ADDRH
      000000B8H.4 SFRSYM    DATA     BIT       PS
      00000081H   SFRSYM    DATA     BYTE      SP
      000000C4H   SFRSYM    DATA     BYTE      IAP_ADDRL
      000000D9H   SFRSYM    DATA     BYTE      CMOD
      000000D8H   SFRSYM    DATA     BYTE      CCON
      000000B8H.7 SFRSYM    DATA     BIT       PPCA
      000000D0H.2 SFRSYM    DATA     BIT       OV
      000000A8H.6 SFRSYM    DATA     BIT       ELVD
      000000BBH   SFRSYM    DATA     BYTE      P4SW
      00000080H   SFRSYM    DATA     BIT       P00
      000000BCH   SFRSYM    DATA     BYTE      ADC_CONTR
      00000099H   SFRSYM    DATA     BYTE      SBUF
      00000090H   SFRSYM    DATA     BIT       P10
      00000080H.1 SFRSYM    DATA     BIT       P01
      00000087H   SFRSYM    DATA     BYTE      PCON
      000000A0H   SFRSYM    DATA     BIT       P20
      00000090H.1 SFRSYM    DATA     BIT       P11
      00000080H.2 SFRSYM    DATA     BIT       P02
      000000B0H   SFRSYM    DATA     BIT       P30
      000000A0H.1 SFRSYM    DATA     BIT       P21
      00000090H.2 SFRSYM    DATA     BIT       P12
      00000080H.3 SFRSYM    DATA     BIT       P03
      00000098H   SFRSYM    DATA     BYTE      SCON
      000000C0H   SFRSYM    DATA     BIT       P40
      000000B0H.1 SFRSYM    DATA     BIT       P31
      000000A0H.2 SFRSYM    DATA     BIT       P22
      00000090H.3 SFRSYM    DATA     BIT       P13
      00000080H.4 SFRSYM    DATA     BIT       P04
      0000008FH   SFRSYM    DATA     BYTE      WAKE_CLKO
      00000089H   SFRSYM    DATA     BYTE      TMOD
      00000088H   SFRSYM    DATA     BYTE      TCON
      000000C8H   SFRSYM    DATA     BIT       P50
      000000C0H.1 SFRSYM    DATA     BIT       P41
      000000B0H.2 SFRSYM    DATA     BIT       P32
      000000A0H.3 SFRSYM    DATA     BIT       P23
      00000090H.4 SFRSYM    DATA     BIT       P14
      00000080H.5 SFRSYM    DATA     BIT       P05
      000000C8H.1 SFRSYM    DATA     BIT       P51
      000000C0H.2 SFRSYM    DATA     BIT       P42
      000000B0H.3 SFRSYM    DATA     BIT       P33
      000000A0H.4 SFRSYM    DATA     BIT       P24
      00000090H.5 SFRSYM    DATA     BIT       P15
      00000080H.6 SFRSYM    DATA     BIT       P06
      000000C8H.2 SFRSYM    DATA     BIT       P52
      000000C0H.3 SFRSYM    DATA     BIT       P43
      000000B0H.4 SFRSYM    DATA     BIT       P34
      000000A0H.5 SFRSYM    DATA     BIT       P25
      00000090H.6 SFRSYM    DATA     BIT       P16
LX51 LINKER/LOCATER V4.58                                                             10/24/2019  23:49:40  PAGE 12


      00000080H.7 SFRSYM    DATA     BIT       P07
      000000B8H.6 SFRSYM    DATA     BIT       PLVD
      000000C8H.3 SFRSYM    DATA     BIT       P53
      000000C0H.4 SFRSYM    DATA     BIT       P44
      000000B0H.5 SFRSYM    DATA     BIT       P35
      000000A0H.6 SFRSYM    DATA     BIT       P26
      00000090H.7 SFRSYM    DATA     BIT       P17
      000000C0H.5 SFRSYM    DATA     BIT       P45
      000000B0H.6 SFRSYM    DATA     BIT       P36
      000000A0H.7 SFRSYM    DATA     BIT       P27
      000000C0H.6 SFRSYM    DATA     BIT       P46
      000000B0H.7 SFRSYM    DATA     BIT       P37
      000000C0H.7 SFRSYM    DATA     BIT       P47
      00000088H.1 SFRSYM    DATA     BIT       IE0
      000000A1H   SFRSYM    DATA     BYTE      BUS_SPEED
      00000088H.3 SFRSYM    DATA     BIT       IE1
      000000AFH   SFRSYM    DATA     BYTE      IE2
      0000008EH   SFRSYM    DATA     BYTE      AUXR
      000000F0H   SFRSYM    DATA     BYTE      B
      000000C7H   SFRSYM    DATA     BYTE      IAP_CONTR
      000000E0H   SFRSYM    DATA     BYTE      ACC
      000000A8H.1 SFRSYM    DATA     BIT       ET0
      00000088H.5 SFRSYM    DATA     BIT       TF0
      000000A8H.3 SFRSYM    DATA     BIT       ET1
      00000088H.7 SFRSYM    DATA     BIT       TF1
      000000B5H   SFRSYM    DATA     BYTE      IP2
      00000098H.2 SFRSYM    DATA     BIT       RB8
      0000008CH   SFRSYM    DATA     BYTE      TH0
      0000008DH   SFRSYM    DATA     BYTE      TH1
      00000088H   SFRSYM    DATA     BIT       IT0
      000000A8H   SFRSYM    DATA     BIT       EX0
      00000098H.3 SFRSYM    DATA     BIT       TB8
      00000088H.2 SFRSYM    DATA     BIT       IT1
      000000A8H.2 SFRSYM    DATA     BIT       EX1
      000000D0H   SFRSYM    DATA     BIT       P
      00000098H.7 SFRSYM    DATA     BIT       SM0
      0000008AH   SFRSYM    DATA     BYTE      TL0
      00000098H.6 SFRSYM    DATA     BIT       SM1
      0000008BH   SFRSYM    DATA     BYTE      TL1
      00000098H.5 SFRSYM    DATA     BIT       SM2
      000000B8H.1 SFRSYM    DATA     BIT       PT0
      000000B8H.3 SFRSYM    DATA     BIT       PT1
      000000D0H.3 SFRSYM    DATA     BIT       RS0
      000000C2H   SFRSYM    DATA     BYTE      IAP_DATA
      00000088H.4 SFRSYM    DATA     BIT       TR0
      000000D0H.4 SFRSYM    DATA     BIT       RS1
      00000088H.6 SFRSYM    DATA     BIT       TR1
      000000A0H.5 SFRSYM    DATA     BIT       SDA
      000000C1H   SFRSYM    DATA     BYTE      WDT_CONTR
      000000B8H   SFRSYM    DATA     BIT       PX0
      000000B8H.2 SFRSYM    DATA     BIT       PX1
      000000F2H   SFRSYM    DATA     BYTE      PCA_PWM0
      000000F3H   SFRSYM    DATA     BYTE      PCA_PWM1
      0000009DH   SFRSYM    DATA     BYTE      P1ASF
      00000083H   SFRSYM    DATA     BYTE      DPH
      000000BEH   SFRSYM    DATA     BYTE      ADC_RESL
      00000082H   SFRSYM    DATA     BYTE      DPL
      000000CDH   SFRSYM    DATA     BYTE      SPSTAT
      000000B7H   SFRSYM    DATA     BYTE      IPH
      000000A0H.6 SFRSYM    DATA     BIT       SCL
      0000009BH   SFRSYM    DATA     BYTE      S2BUF
      00000098H.4 SFRSYM    DATA     BIT       REN
      0000009AH   SFRSYM    DATA     BYTE      S2CON
      0000009CH   SFRSYM    DATA     BYTE      BRT
      000000B9H   SFRSYM    DATA     BYTE      SADEN
LX51 LINKER/LOCATER V4.58                                                             10/24/2019  23:49:40  PAGE 13


      000000A9H   SFRSYM    DATA     BYTE      SADDR
      000000C6H   SFRSYM    DATA     BYTE      IAP_TRIG
      000000A2H   SFRSYM    DATA     BYTE      AUXR1
      000000D0H.5 SFRSYM    DATA     BIT       F0
      000000D0H   SFRSYM    DATA     BYTE      PSW
      000000D8H   SFRSYM    DATA     BIT       CCF0
      000000CFH   SFRSYM    DATA     BYTE      SPDAT
      000000D8H.1 SFRSYM    DATA     BIT       CCF1
      00000094H   SFRSYM    DATA     BYTE      P0M0
      01002B0EH   SYMBOL    CODE     ---       Delay1ms
      01002A63H   SYMBOL    CODE     ---       _delay

      01002B0EH   BLOCK     CODE     ---       LVL=0
      01002B0EH   BLOCK     CODE     NEAR LAB  LVL=1
      00000007H   SYMBOL    DATA     BYTE      i
      00000006H   SYMBOL    DATA     BYTE      j
      ---         BLOCKEND  ---      ---       LVL=1
      01002B0EH   LINE      CODE     ---       #19
      01002B0EH   LINE      CODE     ---       #20
      01002B0EH   LINE      CODE     ---       #22
      01002B10H   LINE      CODE     ---       #23
      01002B12H   LINE      CODE     ---       #25
      01002B12H   LINE      CODE     ---       #26
      01002B14H   LINE      CODE     ---       #27
      01002B16H   LINE      CODE     ---       #28
      ---         BLOCKEND  ---      ---       LVL=0

      01002A63H   BLOCK     CODE     ---       LVL=0
      00000004H   SYMBOL    DATA     WORD      z
      01002A63H   LINE      CODE     ---       #30
      01002A67H   LINE      CODE     ---       #31
      01002A67H   LINE      CODE     ---       #32
      01002A71H   LINE      CODE     ---       #33
      01002A71H   LINE      CODE     ---       #34
      01002A74H   LINE      CODE     ---       #35
      01002A76H   LINE      CODE     ---       #36
      ---         BLOCKEND  ---      ---       LVL=0

      01002B17H   BLOCK     CODE     ---       LVL=0
      01002B17H   LINE      CODE     ---       #41
      01002B17H   LINE      CODE     ---       #42
      01002B17H   LINE      CODE     ---       #43
      01002B19H   LINE      CODE     ---       #44
      01002B1BH   LINE      CODE     ---       #45
      01002B1DH   LINE      CODE     ---       #46
      01002B1FH   LINE      CODE     ---       #47
      ---         BLOCKEND  ---      ---       LVL=0

      01002B20H   BLOCK     CODE     ---       LVL=0
      01002B20H   LINE      CODE     ---       #52
      01002B20H   LINE      CODE     ---       #53
      01002B20H   LINE      CODE     ---       #54
      01002B22H   LINE      CODE     ---       #55
      01002B24H   LINE      CODE     ---       #56
      01002B26H   LINE      CODE     ---       #57
      01002B28H   LINE      CODE     ---       #58
      ---         BLOCKEND  ---      ---       LVL=0

      01002860H   BLOCK     CODE     ---       LVL=0
      ---         BLOCKEND  ---      ---       LVL=0

      01002867H   BLOCK     CODE     ---       LVL=0
      00000007H   SYMBOL    DATA     BYTE      IIC_Byte
      00000006H   SYMBOL    DATA     BYTE      i
      01002867H   BLOCK     CODE     NEAR LAB  LVL=1
LX51 LINKER/LOCATER V4.58                                                             10/24/2019  23:49:40  PAGE 14


      00000006H   SYMBOL    DATA     BYTE      i
      ---         BLOCKEND  ---      ---       LVL=1
      01002867H   LINE      CODE     ---       #63
      01002867H   LINE      CODE     ---       #64
      01002867H   LINE      CODE     ---       #66
      01002869H   LINE      CODE     ---       #67
      01002869H   LINE      CODE     ---       #68
      0100286DH   LINE      CODE     ---       #69
      01002871H   LINE      CODE     ---       #71
      01002873H   LINE      CODE     ---       #72
      01002875H   LINE      CODE     ---       #73
      01002877H   LINE      CODE     ---       #74
      0100287BH   LINE      CODE     ---       #75
      0100287FH   LINE      CODE     ---       #76
      01002881H   LINE      CODE     ---       #77
      01002883H   LINE      CODE     ---       #78
      01002885H   LINE      CODE     ---       #79
      ---         BLOCKEND  ---      ---       LVL=0

      01002908H   BLOCK     CODE     ---       LVL=0
      ---         BLOCKEND  ---      ---       LVL=0

      01002915H   BLOCK     CODE     ---       LVL=0
      00000005H   SYMBOL    DATA     BYTE      IIC_Data
      01002915H   LINE      CODE     ---       #82
      01002915H   LINE      CODE     ---       #83
      01002915H   LINE      CODE     ---       #84
      01002915H   LINE      CODE     ---       #85
      01002918H   LINE      CODE     ---       #86
      0100291DH   LINE      CODE     ---       #87
      01002922H   LINE      CODE     ---       #88
      ---         BLOCKEND  ---      ---       LVL=0

      01002925H   BLOCK     CODE     ---       LVL=0
      ---         BLOCKEND  ---      ---       LVL=0

      01002932H   BLOCK     CODE     ---       LVL=0
      00000005H   SYMBOL    DATA     BYTE      IIC_Command
      01002932H   LINE      CODE     ---       #91
      01002932H   LINE      CODE     ---       #92
      01002932H   LINE      CODE     ---       #93
      01002932H   LINE      CODE     ---       #94
      01002935H   LINE      CODE     ---       #95
      0100293AH   LINE      CODE     ---       #96
      0100293FH   LINE      CODE     ---       #97
      ---         BLOCKEND  ---      ---       LVL=0

      010028EAH   BLOCK     CODE     ---       LVL=0
      00000004H   SYMBOL    DATA     BYTE      x
      00000005H   SYMBOL    DATA     BYTE      y
      010028EAH   LINE      CODE     ---       #100
      010028ECH   LINE      CODE     ---       #101
      010028ECH   LINE      CODE     ---       #102
      010028F3H   LINE      CODE     ---       #103
      010028FFH   LINE      CODE     ---       #104
      ---         BLOCKEND  ---      ---       LVL=0

      010029ADH   BLOCK     CODE     ---       LVL=0
      00000004H   SYMBOL    DATA     BYTE      bmp_dat
      010029AFH   BLOCK     CODE     NEAR LAB  LVL=1
      00000003H   SYMBOL    DATA     BYTE      y
      00000002H   SYMBOL    DATA     BYTE      x
      ---         BLOCKEND  ---      ---       LVL=1
      010029ADH   LINE      CODE     ---       #107
      010029AFH   LINE      CODE     ---       #108
LX51 LINKER/LOCATER V4.58                                                             10/24/2019  23:49:40  PAGE 15


      010029AFH   LINE      CODE     ---       #110
      010029B1H   LINE      CODE     ---       #111
      010029B1H   LINE      CODE     ---       #112
      010029B2H   LINE      CODE     ---       #113
      010029B2H   LINE      CODE     ---       #114
      010029B5H   LINE      CODE     ---       #115
      010029B7H   LINE      CODE     ---       #116
      010029C0H   LINE      CODE     ---       #117
      010029C4H   LINE      CODE     ---       #118
      ---         BLOCKEND  ---      ---       LVL=0

      01002A21H   BLOCK     CODE     ---       LVL=0
      01002A21H   BLOCK     CODE     NEAR LAB  LVL=1
      00000004H   SYMBOL    DATA     BYTE      y
      00000003H   SYMBOL    DATA     BYTE      x
      ---         BLOCKEND  ---      ---       LVL=1
      01002A21H   LINE      CODE     ---       #120
      01002A21H   LINE      CODE     ---       #121
      01002A21H   LINE      CODE     ---       #123
      01002A23H   LINE      CODE     ---       #124
      01002A23H   LINE      CODE     ---       #125
      01002A24H   LINE      CODE     ---       #126
      01002A24H   LINE      CODE     ---       #127
      01002A27H   LINE      CODE     ---       #128
      01002A29H   LINE      CODE     ---       #129
      01002A32H   LINE      CODE     ---       #130
      01002A36H   LINE      CODE     ---       #131
      ---         BLOCKEND  ---      ---       LVL=0

      010021B5H   BLOCK     CODE     ---       LVL=0
      010021B5H   LINE      CODE     ---       #133
      010021B5H   LINE      CODE     ---       #134
      010021B5H   LINE      CODE     ---       #136
      010021BAH   LINE      CODE     ---       #137
      010021BCH   LINE      CODE     ---       #138
      010021BFH   LINE      CODE     ---       #139
      010021C4H   LINE      CODE     ---       #140
      010021C9H   LINE      CODE     ---       #141
      010021CEH   LINE      CODE     ---       #142
      010021D3H   LINE      CODE     ---       #143
      010021D8H   LINE      CODE     ---       #144
      010021DDH   LINE      CODE     ---       #145
      010021E2H   LINE      CODE     ---       #146
      010021E7H   LINE      CODE     ---       #147
      010021ECH   LINE      CODE     ---       #148
      010021F1H   LINE      CODE     ---       #149
      010021F6H   LINE      CODE     ---       #150
      010021FBH   LINE      CODE     ---       #151
      01002200H   LINE      CODE     ---       #152
      01002205H   LINE      CODE     ---       #153
      0100220AH   LINE      CODE     ---       #154
      0100220FH   LINE      CODE     ---       #155
      01002214H   LINE      CODE     ---       #156
      01002219H   LINE      CODE     ---       #157
      0100221EH   LINE      CODE     ---       #158
      01002223H   LINE      CODE     ---       #159
      01002228H   LINE      CODE     ---       #160
      0100222DH   LINE      CODE     ---       #161
      01002232H   LINE      CODE     ---       #162
      01002237H   LINE      CODE     ---       #163
      0100223CH   LINE      CODE     ---       #164
      01002241H   LINE      CODE     ---       #165
      01002247H   LINE      CODE     ---       #167
      01002254H   LINE      CODE     ---       #168
      0100225DH   LINE      CODE     ---       #169
LX51 LINKER/LOCATER V4.58                                                             10/24/2019  23:49:40  PAGE 16


      01002266H   LINE      CODE     ---       #170
      01002271H   LINE      CODE     ---       #171
      01002278H   LINE      CODE     ---       #172
      ---         BLOCKEND  ---      ---       LVL=0

      010026A9H   BLOCK     CODE     ---       LVL=0
      00000007H   SYMBOL    DATA     BYTE      x
      00000004H   SYMBOL    DATA     INT       y
      00000003H   SYMBOL    DATA     BYTE      dat
      010026A9H   BLOCK     CODE     NEAR LAB  LVL=1
      00000002H   SYMBOL    DATA     BYTE      c
      00000001H   SYMBOL    DATA     BYTE      i
      00000010H   SYMBOL    DATA     BYTE      j
      ---         BLOCKEND  ---      ---       LVL=1
      010026A9H   LINE      CODE     ---       #175
      010026A9H   LINE      CODE     ---       #176
      010026A9H   LINE      CODE     ---       #177
      010026ADH   LINE      CODE     ---       #180
      010026B1H   LINE      CODE     ---       #181
      010026BEH   LINE      CODE     ---       #182
      010026C1H   LINE      CODE     ---       #183
      010026C3H   LINE      CODE     ---       #184
      010026E1H   LINE      CODE     ---       #185
      010026E1H   LINE      CODE     ---       #186
      ---         BLOCKEND  ---      ---       LVL=0

      0100227DH   BLOCK     CODE     ---       LVL=0
      ---         BLOCKEND  ---      ---       LVL=0

      01002283H   BLOCK     CODE     ---       LVL=0
      00000008H   SYMBOL    DATA     BYTE      x
      00000009H   SYMBOL    DATA     INT       y
      0000000BH   SYMBOL    DATA     ---       ch
      0000000EH   SYMBOL    DATA     BYTE      c
      00000004H   SYMBOL    DATA     BYTE      i
      0000000FH   SYMBOL    DATA     BYTE      j
      0100228FH   BLOCK     CODE     NEAR LAB  LVL=1
      0000000EH   SYMBOL    DATA     BYTE      c
      00000004H   SYMBOL    DATA     BYTE      i
      0000000FH   SYMBOL    DATA     BYTE      j
      ---         BLOCKEND  ---      ---       LVL=1
      01002283H   LINE      CODE     ---       #188
      0100228FH   LINE      CODE     ---       #189
      0100228FH   LINE      CODE     ---       #190
      01002295H   LINE      CODE     ---       #191
      010022A6H   LINE      CODE     ---       #192
      010022A6H   LINE      CODE     ---       #193
      010022AAH   LINE      CODE     ---       #194
      010022BCH   LINE      CODE     ---       #195
      010022C3H   LINE      CODE     ---       #196
      010022C5H   LINE      CODE     ---       #197
      010022E4H   LINE      CODE     ---       #198
      010022EDH   LINE      CODE     ---       #199
      010022EFH   LINE      CODE     ---       #200
      0100230EH   LINE      CODE     ---       #201
      01002314H   LINE      CODE     ---       #202
      01002316H   LINE      CODE     ---       #203
      01002319H   LINE      CODE     ---       #204
      ---         BLOCKEND  ---      ---       LVL=0

      010025E8H   BLOCK     CODE     ---       LVL=0
      00000001H   SYMBOL    DATA     BYTE      x
      0000001CH   SYMBOL    DATA     INT       y
      00000002H   SYMBOL    DATA     INT       N
      010025EEH   BLOCK     CODE     NEAR LAB  LVL=1
LX51 LINKER/LOCATER V4.58                                                             10/24/2019  23:49:40  PAGE 17


      00000004H   SYMBOL    DATA     BYTE      wm
      00000002H   SYMBOL    DATA     WORD      adder
      ---         BLOCKEND  ---      ---       LVL=1
      010025E8H   LINE      CODE     ---       #206
      010025EEH   LINE      CODE     ---       #207
      010025EEH   LINE      CODE     ---       #208
      010025F0H   LINE      CODE     ---       #209
      010025FFH   LINE      CODE     ---       #210
      01002606H   LINE      CODE     ---       #211
      01002608H   LINE      CODE     ---       #212
      01002608H   LINE      CODE     ---       #213
      0100260BH   LINE      CODE     ---       #214
      01002610H   LINE      CODE     ---       #215
      01002614H   LINE      CODE     ---       #216
      0100261DH   LINE      CODE     ---       #217
      0100261FH   LINE      CODE     ---       #218
      0100261FH   LINE      CODE     ---       #219
      01002622H   LINE      CODE     ---       #220
      01002627H   LINE      CODE     ---       #221
      0100262BH   LINE      CODE     ---       #222
      ---         BLOCKEND  ---      ---       LVL=0

      01002442H   BLOCK     CODE     ---       LVL=0
      00000046H   SYMBOL    DATA     BYTE      x0
      00000047H   SYMBOL    DATA     INT       y0
      00000049H   SYMBOL    DATA     INT       x1
      0000004BH   SYMBOL    DATA     INT       y1
      0000004DH   SYMBOL    DATA     ---       BMP
      0100244CH   BLOCK     CODE     NEAR LAB  LVL=1
      00000050H   SYMBOL    DATA     WORD      j
      00000004H   SYMBOL    DATA     BYTE      x
      00000052H   SYMBOL    DATA     BYTE      y
      ---         BLOCKEND  ---      ---       LVL=1
      01002442H   LINE      CODE     ---       #224
      0100244CH   LINE      CODE     ---       #225
      0100244CH   LINE      CODE     ---       #226
      01002451H   LINE      CODE     ---       #229
      0100246DH   LINE      CODE     ---       #230
      01002478H   LINE      CODE     ---       #231
      0100248AH   LINE      CODE     ---       #232
      0100248AH   LINE      CODE     ---       #233
      01002491H   LINE      CODE     ---       #234
      010024A1H   LINE      CODE     ---       #235
      010024A1H   LINE      CODE     ---       #236
      010024BDH   LINE      CODE     ---       #237
      010024C0H   LINE      CODE     ---       #238
      010024C4H   LINE      CODE     ---       #239
      ---         BLOCKEND  ---      ---       LVL=0

      01002533H   BLOCK     CODE     ---       LVL=0
      00000008H   SYMBOL    DATA     BYTE      x
      00000009H   SYMBOL    DATA     BYTE      y
      0000000AH   SYMBOL    DATA     WORD      num
      0100253BH   BLOCK     CODE     NEAR LAB  LVL=1
      0000000CH   SYMBOL    DATA     BYTE      i
      0000000DH   SYMBOL    DATA     WORD      tmp_mod
      0000000FH   SYMBOL    DATA     BYTE      begin
      ---         BLOCKEND  ---      ---       LVL=1
      01002533H   LINE      CODE     ---       #241
      0100253BH   LINE      CODE     ---       #242
      0100253BH   LINE      CODE     ---       #244
      01002541H   LINE      CODE     ---       #245
      01002544H   LINE      CODE     ---       #246
      01002546H   LINE      CODE     ---       #247
      01002546H   LINE      CODE     ---       #248
LX51 LINKER/LOCATER V4.58                                                             10/24/2019  23:49:40  PAGE 18


      01002555H   LINE      CODE     ---       #249
      01002555H   LINE      CODE     ---       #250
      01002558H   LINE      CODE     ---       #251
      01002558H   LINE      CODE     ---       #252
      0100255CH   LINE      CODE     ---       #253
      0100255CH   LINE      CODE     ---       #254
      0100256AH   LINE      CODE     ---       #255
      01002579H   LINE      CODE     ---       #256
      0100257FH   LINE      CODE     ---       #257
      0100257FH   LINE      CODE     ---       #258
      0100258EH   LINE      CODE     ---       #259
      01002597H   LINE      CODE     ---       #260
      ---         BLOCKEND  ---      ---       LVL=0

      ---         MODULE    ---      ---       ADC
      01002942H   PUBLIC    CODE     ---       _Delay
      01002AB1H   PUBLIC    CODE     ---       InitADC
      010027BFH   PUBLIC    CODE     ---       _GetADCResult
      00000092H   SFRSYM    DATA     BYTE      P1M0
      00000093H   SFRSYM    DATA     BYTE      P0M1
      00000096H   SFRSYM    DATA     BYTE      P2M0
      00000091H   SFRSYM    DATA     BYTE      P1M1
      00000080H   SFRSYM    DATA     BYTE      P0
      000000B2H   SFRSYM    DATA     BYTE      P3M0
      00000095H   SFRSYM    DATA     BYTE      P2M1
      00000090H   SFRSYM    DATA     BYTE      P1
      000000B4H   SFRSYM    DATA     BYTE      P4M0
      000000B1H   SFRSYM    DATA     BYTE      P3M1
      000000A0H   SFRSYM    DATA     BYTE      P2
      000000CAH   SFRSYM    DATA     BYTE      P5M0
      000000B3H   SFRSYM    DATA     BYTE      P4M1
      000000B0H   SFRSYM    DATA     BYTE      P3
      000000C9H   SFRSYM    DATA     BYTE      P5M1
      000000C0H   SFRSYM    DATA     BYTE      P4
      000000D0H.6 SFRSYM    DATA     BIT       AC
      000000C8H   SFRSYM    DATA     BYTE      P5
      000000A8H.7 SFRSYM    DATA     BIT       EA
      000000CEH   SFRSYM    DATA     BYTE      SPCTL
      000000D8H.7 SFRSYM    DATA     BIT       CF
      000000F9H   SFRSYM    DATA     BYTE      CH
      000000A8H.5 SFRSYM    DATA     BIT       EADC
      000000A8H   SFRSYM    DATA     BYTE      IE
      000000E9H   SFRSYM    DATA     BYTE      CL
      000000C5H   SFRSYM    DATA     BYTE      IAP_CMD
      000000FAH   SFRSYM    DATA     BYTE      CCAP0H
      000000FBH   SFRSYM    DATA     BYTE      CCAP1H
      000000BDH   SFRSYM    DATA     BYTE      ADC_RES
      000000B6H   SFRSYM    DATA     BYTE      IPH2
      000000EAH   SFRSYM    DATA     BYTE      CCAP0L
      000000D8H.6 SFRSYM    DATA     BIT       CR
      000000EBH   SFRSYM    DATA     BYTE      CCAP1L
      000000DAH   SFRSYM    DATA     BYTE      CCAPM0
      000000DBH   SFRSYM    DATA     BYTE      CCAPM1
      000000A8H.4 SFRSYM    DATA     BIT       ES
      000000B8H.5 SFRSYM    DATA     BIT       PADC
      000000B8H   SFRSYM    DATA     BYTE      IP
      00000098H   SFRSYM    DATA     BIT       RI
      000000D0H.7 SFRSYM    DATA     BIT       CY
      00000098H.1 SFRSYM    DATA     BIT       TI
      00000097H   SFRSYM    DATA     BYTE      CLK_DIV
      000000C3H   SFRSYM    DATA     BYTE      IAP_ADDRH
      000000B8H.4 SFRSYM    DATA     BIT       PS
      00000081H   SFRSYM    DATA     BYTE      SP
      000000C4H   SFRSYM    DATA     BYTE      IAP_ADDRL
      000000D9H   SFRSYM    DATA     BYTE      CMOD
LX51 LINKER/LOCATER V4.58                                                             10/24/2019  23:49:40  PAGE 19


      000000D8H   SFRSYM    DATA     BYTE      CCON
      000000B8H.7 SFRSYM    DATA     BIT       PPCA
      000000D0H.2 SFRSYM    DATA     BIT       OV
      000000A8H.6 SFRSYM    DATA     BIT       ELVD
      000000BBH   SFRSYM    DATA     BYTE      P4SW
      00000080H   SFRSYM    DATA     BIT       P00
      000000BCH   SFRSYM    DATA     BYTE      ADC_CONTR
      00000099H   SFRSYM    DATA     BYTE      SBUF
      00000090H   SFRSYM    DATA     BIT       P10
      00000080H.1 SFRSYM    DATA     BIT       P01
      00000087H   SFRSYM    DATA     BYTE      PCON
      000000A0H   SFRSYM    DATA     BIT       P20
      00000090H.1 SFRSYM    DATA     BIT       P11
      00000080H.2 SFRSYM    DATA     BIT       P02
      000000B0H   SFRSYM    DATA     BIT       P30
      000000A0H.1 SFRSYM    DATA     BIT       P21
      00000090H.2 SFRSYM    DATA     BIT       P12
      00000080H.3 SFRSYM    DATA     BIT       P03
      00000098H   SFRSYM    DATA     BYTE      SCON
      000000C0H   SFRSYM    DATA     BIT       P40
      000000B0H.1 SFRSYM    DATA     BIT       P31
      000000A0H.2 SFRSYM    DATA     BIT       P22
      00000090H.3 SFRSYM    DATA     BIT       P13
      00000080H.4 SFRSYM    DATA     BIT       P04
      0000008FH   SFRSYM    DATA     BYTE      WAKE_CLKO
      00000089H   SFRSYM    DATA     BYTE      TMOD
      00000088H   SFRSYM    DATA     BYTE      TCON
      000000C8H   SFRSYM    DATA     BIT       P50
      000000C0H.1 SFRSYM    DATA     BIT       P41
      000000B0H.2 SFRSYM    DATA     BIT       P32
      000000A0H.3 SFRSYM    DATA     BIT       P23
      00000090H.4 SFRSYM    DATA     BIT       P14
      00000080H.5 SFRSYM    DATA     BIT       P05
      000000C8H.1 SFRSYM    DATA     BIT       P51
      000000C0H.2 SFRSYM    DATA     BIT       P42
      000000B0H.3 SFRSYM    DATA     BIT       P33
      000000A0H.4 SFRSYM    DATA     BIT       P24
      00000090H.5 SFRSYM    DATA     BIT       P15
      00000080H.6 SFRSYM    DATA     BIT       P06
      000000C8H.2 SFRSYM    DATA     BIT       P52
      000000C0H.3 SFRSYM    DATA     BIT       P43
      000000B0H.4 SFRSYM    DATA     BIT       P34
      000000A0H.5 SFRSYM    DATA     BIT       P25
      00000090H.6 SFRSYM    DATA     BIT       P16
      00000080H.7 SFRSYM    DATA     BIT       P07
      000000B8H.6 SFRSYM    DATA     BIT       PLVD
      000000C8H.3 SFRSYM    DATA     BIT       P53
      000000C0H.4 SFRSYM    DATA     BIT       P44
      000000B0H.5 SFRSYM    DATA     BIT       P35
      000000A0H.6 SFRSYM    DATA     BIT       P26
      00000090H.7 SFRSYM    DATA     BIT       P17
      000000C0H.5 SFRSYM    DATA     BIT       P45
      000000B0H.6 SFRSYM    DATA     BIT       P36
      000000A0H.7 SFRSYM    DATA     BIT       P27
      000000C0H.6 SFRSYM    DATA     BIT       P46
      000000B0H.7 SFRSYM    DATA     BIT       P37
      000000C0H.7 SFRSYM    DATA     BIT       P47
      00000088H.1 SFRSYM    DATA     BIT       IE0
      000000A1H   SFRSYM    DATA     BYTE      BUS_SPEED
      00000088H.3 SFRSYM    DATA     BIT       IE1
      000000AFH   SFRSYM    DATA     BYTE      IE2
      0000008EH   SFRSYM    DATA     BYTE      AUXR
      000000F0H   SFRSYM    DATA     BYTE      B
      000000C7H   SFRSYM    DATA     BYTE      IAP_CONTR
      000000E0H   SFRSYM    DATA     BYTE      ACC
LX51 LINKER/LOCATER V4.58                                                             10/24/2019  23:49:40  PAGE 20


      000000A8H.1 SFRSYM    DATA     BIT       ET0
      00000088H.5 SFRSYM    DATA     BIT       TF0
      000000A8H.3 SFRSYM    DATA     BIT       ET1
      00000088H.7 SFRSYM    DATA     BIT       TF1
      000000B5H   SFRSYM    DATA     BYTE      IP2
      00000098H.2 SFRSYM    DATA     BIT       RB8
      0000008CH   SFRSYM    DATA     BYTE      TH0
      0000008DH   SFRSYM    DATA     BYTE      TH1
      00000088H   SFRSYM    DATA     BIT       IT0
      000000A8H   SFRSYM    DATA     BIT       EX0
      00000098H.3 SFRSYM    DATA     BIT       TB8
      00000088H.2 SFRSYM    DATA     BIT       IT1
      000000A8H.2 SFRSYM    DATA     BIT       EX1
      000000D0H   SFRSYM    DATA     BIT       P
      00000098H.7 SFRSYM    DATA     BIT       SM0
      0000008AH   SFRSYM    DATA     BYTE      TL0
      00000098H.6 SFRSYM    DATA     BIT       SM1
      0000008BH   SFRSYM    DATA     BYTE      TL1
      00000098H.5 SFRSYM    DATA     BIT       SM2
      000000B8H.1 SFRSYM    DATA     BIT       PT0
      000000B8H.3 SFRSYM    DATA     BIT       PT1
      000000D0H.3 SFRSYM    DATA     BIT       RS0
      000000C2H   SFRSYM    DATA     BYTE      IAP_DATA
      00000088H.4 SFRSYM    DATA     BIT       TR0
      000000D0H.4 SFRSYM    DATA     BIT       RS1
      00000088H.6 SFRSYM    DATA     BIT       TR1
      000000C1H   SFRSYM    DATA     BYTE      WDT_CONTR
      000000B8H   SFRSYM    DATA     BIT       PX0
      000000B8H.2 SFRSYM    DATA     BIT       PX1
      000000F2H   SFRSYM    DATA     BYTE      PCA_PWM0
      000000F3H   SFRSYM    DATA     BYTE      PCA_PWM1
      0000009DH   SFRSYM    DATA     BYTE      P1ASF
      00000083H   SFRSYM    DATA     BYTE      DPH
      000000BEH   SFRSYM    DATA     BYTE      ADC_RESL
      00000082H   SFRSYM    DATA     BYTE      DPL
      000000CDH   SFRSYM    DATA     BYTE      SPSTAT
      000000B7H   SFRSYM    DATA     BYTE      IPH
      0000009BH   SFRSYM    DATA     BYTE      S2BUF
      00000098H.4 SFRSYM    DATA     BIT       REN
      0000009AH   SFRSYM    DATA     BYTE      S2CON
      0000009CH   SFRSYM    DATA     BYTE      BRT
      000000B9H   SFRSYM    DATA     BYTE      SADEN
      000000A9H   SFRSYM    DATA     BYTE      SADDR
      000000C6H   SFRSYM    DATA     BYTE      IAP_TRIG
      000000A2H   SFRSYM    DATA     BYTE      AUXR1
      000000D0H.5 SFRSYM    DATA     BIT       F0
      000000D0H   SFRSYM    DATA     BYTE      PSW
      000000D8H   SFRSYM    DATA     BIT       CCF0
      000000CFH   SFRSYM    DATA     BYTE      SPDAT
      000000D8H.1 SFRSYM    DATA     BIT       CCF1
      00000094H   SFRSYM    DATA     BYTE      P0M0

      010027BFH   BLOCK     CODE     ---       LVL=0
      00000007H   SYMBOL    DATA     BYTE      ch
      010027BFH   LINE      CODE     ---       #8
      010027BFH   LINE      CODE     ---       #9
      010027BFH   LINE      CODE     ---       #10
      010027C4H   LINE      CODE     ---       #11
      010027C5H   LINE      CODE     ---       #12
      010027C6H   LINE      CODE     ---       #13
      010027C7H   LINE      CODE     ---       #14
      010027C8H   LINE      CODE     ---       #15
      010027CDH   LINE      CODE     ---       #16
      010027D0H   LINE      CODE     ---       #17
      010027E7H   LINE      CODE     ---       #18
LX51 LINKER/LOCATER V4.58                                                             10/24/2019  23:49:40  PAGE 21


      ---         BLOCKEND  ---      ---       LVL=0

      01002AB1H   BLOCK     CODE     ---       LVL=0
      01002AB1H   LINE      CODE     ---       #24
      01002AB1H   LINE      CODE     ---       #25
      01002AB1H   LINE      CODE     ---       #26
      01002AB4H   LINE      CODE     ---       #27
      01002AB7H   LINE      CODE     ---       #28
      01002ABAH   LINE      CODE     ---       #29
      ---         BLOCKEND  ---      ---       LVL=0

      01002942H   BLOCK     CODE     ---       LVL=0
      00000006H   SYMBOL    DATA     WORD      n
      01002942H   BLOCK     CODE     NEAR LAB  LVL=1
      00000004H   SYMBOL    DATA     WORD      x
      ---         BLOCKEND  ---      ---       LVL=1
      01002942H   LINE      CODE     ---       #36
      01002942H   LINE      CODE     ---       #37
      01002942H   LINE      CODE     ---       #40
      0100294CH   LINE      CODE     ---       #41
      0100294CH   LINE      CODE     ---       #42
      01002950H   LINE      CODE     ---       #43
      0100295CH   LINE      CODE     ---       #45
      ---         BLOCKEND  ---      ---       LVL=0

      ---         MODULE    ---      ---       UART
      01002B31H   PUBLIC    CODE     ---       _putchar
      01002B29H   PUBLIC    CODE     ---       _UART1_SendOneByte
      010029C5H   PUBLIC    CODE     ---       UartInit
      00000092H   SFRSYM    DATA     BYTE      P1M0
      00000093H   SFRSYM    DATA     BYTE      P0M1
      00000096H   SFRSYM    DATA     BYTE      P2M0
      00000091H   SFRSYM    DATA     BYTE      P1M1
      00000080H   SFRSYM    DATA     BYTE      P0
      000000B2H   SFRSYM    DATA     BYTE      P3M0
      00000095H   SFRSYM    DATA     BYTE      P2M1
      00000090H   SFRSYM    DATA     BYTE      P1
      000000B4H   SFRSYM    DATA     BYTE      P4M0
      000000B1H   SFRSYM    DATA     BYTE      P3M1
      000000A0H   SFRSYM    DATA     BYTE      P2
      000000CAH   SFRSYM    DATA     BYTE      P5M0
      000000B3H   SFRSYM    DATA     BYTE      P4M1
      000000B0H   SFRSYM    DATA     BYTE      P3
      000000C9H   SFRSYM    DATA     BYTE      P5M1
      000000C0H   SFRSYM    DATA     BYTE      P4
      000000D0H.6 SFRSYM    DATA     BIT       AC
      000000C8H   SFRSYM    DATA     BYTE      P5
      000000A8H.7 SFRSYM    DATA     BIT       EA
      000000CEH   SFRSYM    DATA     BYTE      SPCTL
      000000D8H.7 SFRSYM    DATA     BIT       CF
      000000F9H   SFRSYM    DATA     BYTE      CH
      000000A8H.5 SFRSYM    DATA     BIT       EADC
      000000A8H   SFRSYM    DATA     BYTE      IE
      000000E9H   SFRSYM    DATA     BYTE      CL
      000000C5H   SFRSYM    DATA     BYTE      IAP_CMD
      000000FAH   SFRSYM    DATA     BYTE      CCAP0H
      000000FBH   SFRSYM    DATA     BYTE      CCAP1H
      000000BDH   SFRSYM    DATA     BYTE      ADC_RES
      000000B6H   SFRSYM    DATA     BYTE      IPH2
      000000EAH   SFRSYM    DATA     BYTE      CCAP0L
      000000D8H.6 SFRSYM    DATA     BIT       CR
      000000EBH   SFRSYM    DATA     BYTE      CCAP1L
      000000DAH   SFRSYM    DATA     BYTE      CCAPM0
      000000DBH   SFRSYM    DATA     BYTE      CCAPM1
      000000A8H.4 SFRSYM    DATA     BIT       ES
LX51 LINKER/LOCATER V4.58                                                             10/24/2019  23:49:40  PAGE 22


      000000B8H.5 SFRSYM    DATA     BIT       PADC
      000000B8H   SFRSYM    DATA     BYTE      IP
      00000098H   SFRSYM    DATA     BIT       RI
      000000D0H.7 SFRSYM    DATA     BIT       CY
      00000098H.1 SFRSYM    DATA     BIT       TI
      00000097H   SFRSYM    DATA     BYTE      CLK_DIV
      000000C3H   SFRSYM    DATA     BYTE      IAP_ADDRH
      000000B8H.4 SFRSYM    DATA     BIT       PS
      00000081H   SFRSYM    DATA     BYTE      SP
      000000C4H   SFRSYM    DATA     BYTE      IAP_ADDRL
      000000D9H   SFRSYM    DATA     BYTE      CMOD
      000000D8H   SFRSYM    DATA     BYTE      CCON
      000000B8H.7 SFRSYM    DATA     BIT       PPCA
      000000D0H.2 SFRSYM    DATA     BIT       OV
      000000A8H.6 SFRSYM    DATA     BIT       ELVD
      000000BBH   SFRSYM    DATA     BYTE      P4SW
      00000080H   SFRSYM    DATA     BIT       P00
      000000BCH   SFRSYM    DATA     BYTE      ADC_CONTR
      00000099H   SFRSYM    DATA     BYTE      SBUF
      00000090H   SFRSYM    DATA     BIT       P10
      00000080H.1 SFRSYM    DATA     BIT       P01
      00000087H   SFRSYM    DATA     BYTE      PCON
      000000A0H   SFRSYM    DATA     BIT       P20
      00000090H.1 SFRSYM    DATA     BIT       P11
      00000080H.2 SFRSYM    DATA     BIT       P02
      000000B0H   SFRSYM    DATA     BIT       P30
      000000A0H.1 SFRSYM    DATA     BIT       P21
      00000090H.2 SFRSYM    DATA     BIT       P12
      00000080H.3 SFRSYM    DATA     BIT       P03
      00000098H   SFRSYM    DATA     BYTE      SCON
      000000C0H   SFRSYM    DATA     BIT       P40
      000000B0H.1 SFRSYM    DATA     BIT       P31
      000000A0H.2 SFRSYM    DATA     BIT       P22
      00000090H.3 SFRSYM    DATA     BIT       P13
      00000080H.4 SFRSYM    DATA     BIT       P04
      0000008FH   SFRSYM    DATA     BYTE      WAKE_CLKO
      00000089H   SFRSYM    DATA     BYTE      TMOD
      00000088H   SFRSYM    DATA     BYTE      TCON
      000000C8H   SFRSYM    DATA     BIT       P50
      000000C0H.1 SFRSYM    DATA     BIT       P41
      000000B0H.2 SFRSYM    DATA     BIT       P32
      000000A0H.3 SFRSYM    DATA     BIT       P23
      00000090H.4 SFRSYM    DATA     BIT       P14
      00000080H.5 SFRSYM    DATA     BIT       P05
      000000C8H.1 SFRSYM    DATA     BIT       P51
      000000C0H.2 SFRSYM    DATA     BIT       P42
      000000B0H.3 SFRSYM    DATA     BIT       P33
      000000A0H.4 SFRSYM    DATA     BIT       P24
      00000090H.5 SFRSYM    DATA     BIT       P15
      00000080H.6 SFRSYM    DATA     BIT       P06
      000000C8H.2 SFRSYM    DATA     BIT       P52
      000000C0H.3 SFRSYM    DATA     BIT       P43
      000000B0H.4 SFRSYM    DATA     BIT       P34
      000000A0H.5 SFRSYM    DATA     BIT       P25
      00000090H.6 SFRSYM    DATA     BIT       P16
      00000080H.7 SFRSYM    DATA     BIT       P07
      000000B8H.6 SFRSYM    DATA     BIT       PLVD
      000000C8H.3 SFRSYM    DATA     BIT       P53
      000000C0H.4 SFRSYM    DATA     BIT       P44
      000000B0H.5 SFRSYM    DATA     BIT       P35
      000000A0H.6 SFRSYM    DATA     BIT       P26
      00000090H.7 SFRSYM    DATA     BIT       P17
      000000C0H.5 SFRSYM    DATA     BIT       P45
      000000B0H.6 SFRSYM    DATA     BIT       P36
      000000A0H.7 SFRSYM    DATA     BIT       P27
LX51 LINKER/LOCATER V4.58                                                             10/24/2019  23:49:40  PAGE 23


      000000C0H.6 SFRSYM    DATA     BIT       P46
      000000B0H.7 SFRSYM    DATA     BIT       P37
      000000C0H.7 SFRSYM    DATA     BIT       P47
      00000088H.1 SFRSYM    DATA     BIT       IE0
      000000A1H   SFRSYM    DATA     BYTE      BUS_SPEED
      00000088H.3 SFRSYM    DATA     BIT       IE1
      000000AFH   SFRSYM    DATA     BYTE      IE2
      0000008EH   SFRSYM    DATA     BYTE      AUXR
      000000F0H   SFRSYM    DATA     BYTE      B
      000000C7H   SFRSYM    DATA     BYTE      IAP_CONTR
      000000E0H   SFRSYM    DATA     BYTE      ACC
      000000A8H.1 SFRSYM    DATA     BIT       ET0
      00000088H.5 SFRSYM    DATA     BIT       TF0
      000000A8H.3 SFRSYM    DATA     BIT       ET1
      00000088H.7 SFRSYM    DATA     BIT       TF1
      000000B5H   SFRSYM    DATA     BYTE      IP2
      00000098H.2 SFRSYM    DATA     BIT       RB8
      0000008CH   SFRSYM    DATA     BYTE      TH0
      0000008DH   SFRSYM    DATA     BYTE      TH1
      00000088H   SFRSYM    DATA     BIT       IT0
      000000A8H   SFRSYM    DATA     BIT       EX0
      00000098H.3 SFRSYM    DATA     BIT       TB8
      00000088H.2 SFRSYM    DATA     BIT       IT1
      000000A8H.2 SFRSYM    DATA     BIT       EX1
      000000D0H   SFRSYM    DATA     BIT       P
      00000098H.7 SFRSYM    DATA     BIT       SM0
      0000008AH   SFRSYM    DATA     BYTE      TL0
      00000098H.6 SFRSYM    DATA     BIT       SM1
      0000008BH   SFRSYM    DATA     BYTE      TL1
      00000098H.5 SFRSYM    DATA     BIT       SM2
      000000B8H.1 SFRSYM    DATA     BIT       PT0
      000000B8H.3 SFRSYM    DATA     BIT       PT1
      000000D0H.3 SFRSYM    DATA     BIT       RS0
      000000C2H   SFRSYM    DATA     BYTE      IAP_DATA
      00000088H.4 SFRSYM    DATA     BIT       TR0
      000000D0H.4 SFRSYM    DATA     BIT       RS1
      00000088H.6 SFRSYM    DATA     BIT       TR1
      000000C1H   SFRSYM    DATA     BYTE      WDT_CONTR
      000000B8H   SFRSYM    DATA     BIT       PX0
      000000B8H.2 SFRSYM    DATA     BIT       PX1
      000000F2H   SFRSYM    DATA     BYTE      PCA_PWM0
      000000F3H   SFRSYM    DATA     BYTE      PCA_PWM1
      0000009DH   SFRSYM    DATA     BYTE      P1ASF
      00000083H   SFRSYM    DATA     BYTE      DPH
      000000BEH   SFRSYM    DATA     BYTE      ADC_RESL
      00000082H   SFRSYM    DATA     BYTE      DPL
      000000CDH   SFRSYM    DATA     BYTE      SPSTAT
      000000B7H   SFRSYM    DATA     BYTE      IPH
      0000009BH   SFRSYM    DATA     BYTE      S2BUF
      00000098H.4 SFRSYM    DATA     BIT       REN
      0000009AH   SFRSYM    DATA     BYTE      S2CON
      0000009CH   SFRSYM    DATA     BYTE      BRT
      000000B9H   SFRSYM    DATA     BYTE      SADEN
      000000A9H   SFRSYM    DATA     BYTE      SADDR
      000000C6H   SFRSYM    DATA     BYTE      IAP_TRIG
      000000A2H   SFRSYM    DATA     BYTE      AUXR1
      000000D0H.5 SFRSYM    DATA     BIT       F0
      000000D0H   SFRSYM    DATA     BYTE      PSW
      000000D8H   SFRSYM    DATA     BIT       CCF0
      000000CFH   SFRSYM    DATA     BYTE      SPDAT
      000000D8H.1 SFRSYM    DATA     BIT       CCF1
      00000094H   SFRSYM    DATA     BYTE      P0M0

      010029C5H   BLOCK     CODE     ---       LVL=0
      010029C5H   LINE      CODE     ---       #6
LX51 LINKER/LOCATER V4.58                                                             10/24/2019  23:49:40  PAGE 24


      010029C5H   LINE      CODE     ---       #7
      010029C5H   LINE      CODE     ---       #8
      010029C8H   LINE      CODE     ---       #9
      010029CBH   LINE      CODE     ---       #10
      010029CEH   LINE      CODE     ---       #11
      010029D1H   LINE      CODE     ---       #12
      010029D4H   LINE      CODE     ---       #13
      010029D7H   LINE      CODE     ---       #15
      010029D9H   LINE      CODE     ---       #16
      010029DBH   LINE      CODE     ---       #17
      ---         BLOCKEND  ---      ---       LVL=0

      01002B29H   BLOCK     CODE     ---       LVL=0
      00000007H   SYMBOL    DATA     BYTE      c
      01002B29H   LINE      CODE     ---       #20
      01002B29H   LINE      CODE     ---       #21
      01002B29H   LINE      CODE     ---       #22
      01002B2BH   LINE      CODE     ---       #23
      01002B2EH   LINE      CODE     ---       #24
      01002B30H   LINE      CODE     ---       #25
      ---         BLOCKEND  ---      ---       LVL=0

      01002B31H   BLOCK     CODE     ---       LVL=0
      00000007H   SYMBOL    DATA     CHAR      c
      01002B31H   LINE      CODE     ---       #30
      01002B31H   LINE      CODE     ---       #31
      01002B31H   LINE      CODE     ---       #32
      01002B34H   LINE      CODE     ---       #33
      01002B36H   LINE      CODE     ---       #34
      01002B38H   LINE      CODE     ---       #35
      ---         BLOCKEND  ---      ---       LVL=0

      ---         MODULE    ---      ---       MAIN
      01002AF8H   PUBLIC    CODE     ---       Delay1ms
      010029DCH   PUBLIC    CODE     ---       _delay_ms
      010024C5H   PUBLIC    CODE     ---       main
      00000092H   SFRSYM    DATA     BYTE      P1M0
      00000093H   SFRSYM    DATA     BYTE      P0M1
      00000096H   SFRSYM    DATA     BYTE      P2M0
      00000091H   SFRSYM    DATA     BYTE      P1M1
      00000080H   SFRSYM    DATA     BYTE      P0
      000000B2H   SFRSYM    DATA     BYTE      P3M0
      00000095H   SFRSYM    DATA     BYTE      P2M1
      00000090H   SFRSYM    DATA     BYTE      P1
      000000B4H   SFRSYM    DATA     BYTE      P4M0
      000000B1H   SFRSYM    DATA     BYTE      P3M1
      000000A0H   SFRSYM    DATA     BYTE      P2
      000000CAH   SFRSYM    DATA     BYTE      P5M0
      000000B3H   SFRSYM    DATA     BYTE      P4M1
      000000B0H   SFRSYM    DATA     BYTE      P3
      000000C9H   SFRSYM    DATA     BYTE      P5M1
      000000C0H   SFRSYM    DATA     BYTE      P4
      000000D0H.6 SFRSYM    DATA     BIT       AC
      000000C8H   SFRSYM    DATA     BYTE      P5
      000000A8H.7 SFRSYM    DATA     BIT       EA
      000000CEH   SFRSYM    DATA     BYTE      SPCTL
      000000D8H.7 SFRSYM    DATA     BIT       CF
      000000F9H   SFRSYM    DATA     BYTE      CH
      000000A8H.5 SFRSYM    DATA     BIT       EADC
      000000A8H   SFRSYM    DATA     BYTE      IE
      000000E9H   SFRSYM    DATA     BYTE      CL
      000000C5H   SFRSYM    DATA     BYTE      IAP_CMD
      000000FAH   SFRSYM    DATA     BYTE      CCAP0H
      000000FBH   SFRSYM    DATA     BYTE      CCAP1H
      000000BDH   SFRSYM    DATA     BYTE      ADC_RES
LX51 LINKER/LOCATER V4.58                                                             10/24/2019  23:49:40  PAGE 25


      000000B6H   SFRSYM    DATA     BYTE      IPH2
      000000EAH   SFRSYM    DATA     BYTE      CCAP0L
      000000D8H.6 SFRSYM    DATA     BIT       CR
      000000EBH   SFRSYM    DATA     BYTE      CCAP1L
      000000DAH   SFRSYM    DATA     BYTE      CCAPM0
      000000DBH   SFRSYM    DATA     BYTE      CCAPM1
      000000A8H.4 SFRSYM    DATA     BIT       ES
      000000B8H.5 SFRSYM    DATA     BIT       PADC
      000000B8H   SFRSYM    DATA     BYTE      IP
      00000098H   SFRSYM    DATA     BIT       RI
      000000D0H.7 SFRSYM    DATA     BIT       CY
      00000098H.1 SFRSYM    DATA     BIT       TI
      00000097H   SFRSYM    DATA     BYTE      CLK_DIV
      000000C3H   SFRSYM    DATA     BYTE      IAP_ADDRH
      000000B8H.4 SFRSYM    DATA     BIT       PS
      00000081H   SFRSYM    DATA     BYTE      SP
      000000C4H   SFRSYM    DATA     BYTE      IAP_ADDRL
      000000D9H   SFRSYM    DATA     BYTE      CMOD
      000000D8H   SFRSYM    DATA     BYTE      CCON
      000000B8H.7 SFRSYM    DATA     BIT       PPCA
      000000D0H.2 SFRSYM    DATA     BIT       OV
      000000A8H.6 SFRSYM    DATA     BIT       ELVD
      000000BBH   SFRSYM    DATA     BYTE      P4SW
      00000080H   SFRSYM    DATA     BIT       P00
      000000BCH   SFRSYM    DATA     BYTE      ADC_CONTR
      00000099H   SFRSYM    DATA     BYTE      SBUF
      00000090H   SFRSYM    DATA     BIT       P10
      00000080H.1 SFRSYM    DATA     BIT       P01
      00000087H   SFRSYM    DATA     BYTE      PCON
      000000A0H   SFRSYM    DATA     BIT       P20
      00000090H.1 SFRSYM    DATA     BIT       P11
      00000080H.2 SFRSYM    DATA     BIT       P02
      000000B0H   SFRSYM    DATA     BIT       P30
      000000A0H.1 SFRSYM    DATA     BIT       P21
      00000090H.2 SFRSYM    DATA     BIT       P12
      00000080H.3 SFRSYM    DATA     BIT       P03
      00000098H   SFRSYM    DATA     BYTE      SCON
      000000C0H   SFRSYM    DATA     BIT       P40
      000000B0H.1 SFRSYM    DATA     BIT       P31
      000000A0H.2 SFRSYM    DATA     BIT       P22
      00000090H.3 SFRSYM    DATA     BIT       P13
      00000080H.4 SFRSYM    DATA     BIT       P04
      0000008FH   SFRSYM    DATA     BYTE      WAKE_CLKO
      00000089H   SFRSYM    DATA     BYTE      TMOD
      00000088H   SFRSYM    DATA     BYTE      TCON
      000000C8H   SFRSYM    DATA     BIT       P50
      000000C0H.1 SFRSYM    DATA     BIT       P41
      000000B0H.2 SFRSYM    DATA     BIT       P32
      000000A0H.3 SFRSYM    DATA     BIT       P23
      00000090H.4 SFRSYM    DATA     BIT       P14
      00000080H.5 SFRSYM    DATA     BIT       P05
      000000C8H.1 SFRSYM    DATA     BIT       P51
      000000C0H.2 SFRSYM    DATA     BIT       P42
      000000B0H.3 SFRSYM    DATA     BIT       P33
      000000A0H.4 SFRSYM    DATA     BIT       P24
      00000090H.5 SFRSYM    DATA     BIT       P15
      00000080H.6 SFRSYM    DATA     BIT       P06
      000000C8H.2 SFRSYM    DATA     BIT       P52
      000000C0H.3 SFRSYM    DATA     BIT       P43
      000000B0H.4 SFRSYM    DATA     BIT       P34
      000000A0H.5 SFRSYM    DATA     BIT       P25
      00000090H.6 SFRSYM    DATA     BIT       P16
      00000080H.7 SFRSYM    DATA     BIT       P07
      000000B8H.6 SFRSYM    DATA     BIT       PLVD
      000000C8H.3 SFRSYM    DATA     BIT       P53
LX51 LINKER/LOCATER V4.58                                                             10/24/2019  23:49:40  PAGE 26


      000000C0H.4 SFRSYM    DATA     BIT       P44
      000000B0H.5 SFRSYM    DATA     BIT       P35
      000000A0H.6 SFRSYM    DATA     BIT       P26
      00000090H.7 SFRSYM    DATA     BIT       P17
      000000C0H.5 SFRSYM    DATA     BIT       P45
      000000B0H.6 SFRSYM    DATA     BIT       P36
      000000A0H.7 SFRSYM    DATA     BIT       P27
      000000C0H.6 SFRSYM    DATA     BIT       P46
      000000B0H.7 SFRSYM    DATA     BIT       P37
      000000C0H.7 SFRSYM    DATA     BIT       P47
      00000088H.1 SFRSYM    DATA     BIT       IE0
      000000A1H   SFRSYM    DATA     BYTE      BUS_SPEED
      00000088H.3 SFRSYM    DATA     BIT       IE1
      000000AFH   SFRSYM    DATA     BYTE      IE2
      0000008EH   SFRSYM    DATA     BYTE      AUXR
      000000F0H   SFRSYM    DATA     BYTE      B
      000000C7H   SFRSYM    DATA     BYTE      IAP_CONTR
      000000E0H   SFRSYM    DATA     BYTE      ACC
      000000A8H.1 SFRSYM    DATA     BIT       ET0
      00000088H.5 SFRSYM    DATA     BIT       TF0
      000000A8H.3 SFRSYM    DATA     BIT       ET1
      00000088H.7 SFRSYM    DATA     BIT       TF1
      000000B5H   SFRSYM    DATA     BYTE      IP2
      00000098H.2 SFRSYM    DATA     BIT       RB8
      0000008CH   SFRSYM    DATA     BYTE      TH0
      0000008DH   SFRSYM    DATA     BYTE      TH1
      00000088H   SFRSYM    DATA     BIT       IT0
      000000A8H   SFRSYM    DATA     BIT       EX0
      00000098H.3 SFRSYM    DATA     BIT       TB8
      00000088H.2 SFRSYM    DATA     BIT       IT1
      000000A8H.2 SFRSYM    DATA     BIT       EX1
      000000D0H   SFRSYM    DATA     BIT       P
      00000098H.7 SFRSYM    DATA     BIT       SM0
      0000008AH   SFRSYM    DATA     BYTE      TL0
      00000098H.6 SFRSYM    DATA     BIT       SM1
      0000008BH   SFRSYM    DATA     BYTE      TL1
      00000098H.5 SFRSYM    DATA     BIT       SM2
      000000B8H.1 SFRSYM    DATA     BIT       PT0
      000000B8H.3 SFRSYM    DATA     BIT       PT1
      000000D0H.3 SFRSYM    DATA     BIT       RS0
      000000C2H   SFRSYM    DATA     BYTE      IAP_DATA
      00000088H.4 SFRSYM    DATA     BIT       TR0
      000000D0H.4 SFRSYM    DATA     BIT       RS1
      00000088H.6 SFRSYM    DATA     BIT       TR1
      000000C1H   SFRSYM    DATA     BYTE      WDT_CONTR
      000000B8H   SFRSYM    DATA     BIT       PX0
      000000B8H.2 SFRSYM    DATA     BIT       PX1
      000000F2H   SFRSYM    DATA     BYTE      PCA_PWM0
      000000F3H   SFRSYM    DATA     BYTE      PCA_PWM1
      0000009DH   SFRSYM    DATA     BYTE      P1ASF
      00000083H   SFRSYM    DATA     BYTE      DPH
      000000BEH   SFRSYM    DATA     BYTE      ADC_RESL
      00000082H   SFRSYM    DATA     BYTE      DPL
      000000CDH   SFRSYM    DATA     BYTE      SPSTAT
      000000B7H   SFRSYM    DATA     BYTE      IPH
      0000009BH   SFRSYM    DATA     BYTE      S2BUF
      00000098H.4 SFRSYM    DATA     BIT       REN
      0000009AH   SFRSYM    DATA     BYTE      S2CON
      0000009CH   SFRSYM    DATA     BYTE      BRT
      000000B9H   SFRSYM    DATA     BYTE      SADEN
      000000A9H   SFRSYM    DATA     BYTE      SADDR
      000000C6H   SFRSYM    DATA     BYTE      IAP_TRIG
      000000A2H   SFRSYM    DATA     BYTE      AUXR1
      000000D0H.5 SFRSYM    DATA     BIT       F0
      000000D0H   SFRSYM    DATA     BYTE      PSW
LX51 LINKER/LOCATER V4.58                                                             10/24/2019  23:49:40  PAGE 27


      000000D8H   SFRSYM    DATA     BIT       CCF0
      000000CFH   SFRSYM    DATA     BYTE      SPDAT
      000000D8H.1 SFRSYM    DATA     BIT       CCF1
      00000094H   SFRSYM    DATA     BYTE      P0M0

      010024C5H   BLOCK     CODE     ---       LVL=0
      010024C5H   LINE      CODE     ---       #18
      010024C5H   LINE      CODE     ---       #19
      010024C5H   LINE      CODE     ---       #20
      010024C8H   LINE      CODE     ---       #21
      010024CBH   LINE      CODE     ---       #22
      010024CEH   LINE      CODE     ---       #23
      010024D1H   LINE      CODE     ---       #24
      010024D8H   LINE      CODE     ---       #26
      010024E1H   LINE      CODE     ---       #28
      010024EEH   LINE      CODE     ---       #29
      010024FDH   LINE      CODE     ---       #31
      01002509H   LINE      CODE     ---       #32
      01002515H   LINE      CODE     ---       #37
      01002515H   LINE      CODE     ---       #38
      01002515H   LINE      CODE     ---       #39
      01002527H   LINE      CODE     ---       #45
      0100252AH   LINE      CODE     ---       #46
      01002531H   LINE      CODE     ---       #47
      ---         BLOCKEND  ---      ---       LVL=0

      010029DCH   BLOCK     CODE     ---       LVL=0
      00000008H   SYMBOL    DATA     WORD      xms
      010029DCH   LINE      CODE     ---       #50
      010029E0H   LINE      CODE     ---       #51
      010029E0H   LINE      CODE     ---       #52
      010029EDH   LINE      CODE     ---       #53
      010029EDH   LINE      CODE     ---       #54
      010029F0H   LINE      CODE     ---       #55
      010029F2H   LINE      CODE     ---       #56
      ---         BLOCKEND  ---      ---       LVL=0

      01002AF8H   BLOCK     CODE     ---       LVL=0
      01002AF8H   BLOCK     CODE     NEAR LAB  LVL=1
      00000007H   SYMBOL    DATA     BYTE      i
      00000006H   SYMBOL    DATA     BYTE      j
      ---         BLOCKEND  ---      ---       LVL=1
      01002AF8H   LINE      CODE     ---       #58
      01002AF8H   LINE      CODE     ---       #59
      01002AF8H   LINE      CODE     ---       #62
      01002AF9H   LINE      CODE     ---       #63
      01002AFAH   LINE      CODE     ---       #64
      01002AFCH   LINE      CODE     ---       #65
      01002AFEH   LINE      CODE     ---       #67
      01002AFEH   LINE      CODE     ---       #68
      01002B00H   LINE      CODE     ---       #69
      01002B02H   LINE      CODE     ---       #70
      ---         BLOCKEND  ---      ---       LVL=0

      ---         MODULE    ---      ---       KEY
      00000022H   PUBLIC    DATA     ---       Key_Buf
      0100266DH   PUBLIC    CODE     ---       Task_KEY_Scan
      0100231AH   PUBLIC    CODE     ---       ReadKeyStatus
      00000092H   SFRSYM    DATA     BYTE      P1M0
      00000093H   SFRSYM    DATA     BYTE      P0M1
      00000096H   SFRSYM    DATA     BYTE      P2M0
      00000091H   SFRSYM    DATA     BYTE      P1M1
      00000080H   SFRSYM    DATA     BYTE      P0
      000000B2H   SFRSYM    DATA     BYTE      P3M0
      00000095H   SFRSYM    DATA     BYTE      P2M1
LX51 LINKER/LOCATER V4.58                                                             10/24/2019  23:49:40  PAGE 28


      00000090H   SFRSYM    DATA     BYTE      P1
      000000B4H   SFRSYM    DATA     BYTE      P4M0
      000000B1H   SFRSYM    DATA     BYTE      P3M1
      000000A0H   SFRSYM    DATA     BYTE      P2
      000000CAH   SFRSYM    DATA     BYTE      P5M0
      000000B3H   SFRSYM    DATA     BYTE      P4M1
      000000B0H   SFRSYM    DATA     BYTE      P3
      000000C9H   SFRSYM    DATA     BYTE      P5M1
      000000C0H   SFRSYM    DATA     BYTE      P4
      000000D0H.6 SFRSYM    DATA     BIT       AC
      000000C8H   SFRSYM    DATA     BYTE      P5
      000000A8H.7 SFRSYM    DATA     BIT       EA
      000000CEH   SFRSYM    DATA     BYTE      SPCTL
      000000D8H.7 SFRSYM    DATA     BIT       CF
      000000F9H   SFRSYM    DATA     BYTE      CH
      000000A8H.5 SFRSYM    DATA     BIT       EADC
      000000A8H   SFRSYM    DATA     BYTE      IE
      000000E9H   SFRSYM    DATA     BYTE      CL
      000000C5H   SFRSYM    DATA     BYTE      IAP_CMD
      000000FAH   SFRSYM    DATA     BYTE      CCAP0H
      000000FBH   SFRSYM    DATA     BYTE      CCAP1H
      000000BDH   SFRSYM    DATA     BYTE      ADC_RES
      000000B6H   SFRSYM    DATA     BYTE      IPH2
      000000EAH   SFRSYM    DATA     BYTE      CCAP0L
      000000D8H.6 SFRSYM    DATA     BIT       CR
      000000EBH   SFRSYM    DATA     BYTE      CCAP1L
      000000DAH   SFRSYM    DATA     BYTE      CCAPM0
      000000DBH   SFRSYM    DATA     BYTE      CCAPM1
      000000A8H.4 SFRSYM    DATA     BIT       ES
      000000B8H.5 SFRSYM    DATA     BIT       PADC
      000000B8H   SFRSYM    DATA     BYTE      IP
      00000098H   SFRSYM    DATA     BIT       RI
      000000D0H.7 SFRSYM    DATA     BIT       CY
      00000098H.1 SFRSYM    DATA     BIT       TI
      00000097H   SFRSYM    DATA     BYTE      CLK_DIV
      000000C3H   SFRSYM    DATA     BYTE      IAP_ADDRH
      000000B8H.4 SFRSYM    DATA     BIT       PS
      00000081H   SFRSYM    DATA     BYTE      SP
      000000C4H   SFRSYM    DATA     BYTE      IAP_ADDRL
      000000D9H   SFRSYM    DATA     BYTE      CMOD
      000000D8H   SFRSYM    DATA     BYTE      CCON
      000000B8H.7 SFRSYM    DATA     BIT       PPCA
      000000D0H.2 SFRSYM    DATA     BIT       OV
      000000A8H.6 SFRSYM    DATA     BIT       ELVD
      000000BBH   SFRSYM    DATA     BYTE      P4SW
      00000080H   SFRSYM    DATA     BIT       P00
      000000BCH   SFRSYM    DATA     BYTE      ADC_CONTR
      00000099H   SFRSYM    DATA     BYTE      SBUF
      00000090H   SFRSYM    DATA     BIT       P10
      00000080H.1 SFRSYM    DATA     BIT       P01
      00000087H   SFRSYM    DATA     BYTE      PCON
      000000A0H   SFRSYM    DATA     BIT       P20
      00000090H.1 SFRSYM    DATA     BIT       P11
      00000080H.2 SFRSYM    DATA     BIT       P02
      000000B0H   SFRSYM    DATA     BIT       P30
      000000A0H.1 SFRSYM    DATA     BIT       P21
      00000090H.2 SFRSYM    DATA     BIT       P12
      00000080H.3 SFRSYM    DATA     BIT       P03
      00000098H   SFRSYM    DATA     BYTE      SCON
      000000C0H   SFRSYM    DATA     BIT       P40
      000000B0H.1 SFRSYM    DATA     BIT       P31
      000000A0H.2 SFRSYM    DATA     BIT       P22
      00000090H.3 SFRSYM    DATA     BIT       P13
      00000080H.4 SFRSYM    DATA     BIT       P04
      0000008FH   SFRSYM    DATA     BYTE      WAKE_CLKO
LX51 LINKER/LOCATER V4.58                                                             10/24/2019  23:49:40  PAGE 29


      00000089H   SFRSYM    DATA     BYTE      TMOD
      00000088H   SFRSYM    DATA     BYTE      TCON
      000000C8H   SFRSYM    DATA     BIT       P50
      000000C0H.1 SFRSYM    DATA     BIT       P41
      000000B0H.2 SFRSYM    DATA     BIT       P32
      000000A0H.3 SFRSYM    DATA     BIT       P23
      00000090H.4 SFRSYM    DATA     BIT       P14
      00000080H.5 SFRSYM    DATA     BIT       P05
      000000C8H.1 SFRSYM    DATA     BIT       P51
      000000C0H.2 SFRSYM    DATA     BIT       P42
      000000B0H.3 SFRSYM    DATA     BIT       P33
      000000A0H.4 SFRSYM    DATA     BIT       P24
      00000090H.5 SFRSYM    DATA     BIT       P15
      00000080H.6 SFRSYM    DATA     BIT       P06
      000000C8H.2 SFRSYM    DATA     BIT       P52
      000000C0H.3 SFRSYM    DATA     BIT       P43
      000000B0H.4 SFRSYM    DATA     BIT       P34
      000000A0H.5 SFRSYM    DATA     BIT       P25
      00000090H.6 SFRSYM    DATA     BIT       P16
      00000080H.7 SFRSYM    DATA     BIT       P07
      000000B8H.6 SFRSYM    DATA     BIT       PLVD
      000000C8H.3 SFRSYM    DATA     BIT       P53
      000000C0H.4 SFRSYM    DATA     BIT       P44
      000000B0H.5 SFRSYM    DATA     BIT       P35
      000000A0H.6 SFRSYM    DATA     BIT       P26
      00000090H.7 SFRSYM    DATA     BIT       P17
      000000C0H.5 SFRSYM    DATA     BIT       P45
      000000B0H.6 SFRSYM    DATA     BIT       P36
      000000A0H.7 SFRSYM    DATA     BIT       P27
      000000C0H.6 SFRSYM    DATA     BIT       P46
      000000B0H.7 SFRSYM    DATA     BIT       P37
      000000C0H.7 SFRSYM    DATA     BIT       P47
      00000088H.1 SFRSYM    DATA     BIT       IE0
      000000A1H   SFRSYM    DATA     BYTE      BUS_SPEED
      00000088H.3 SFRSYM    DATA     BIT       IE1
      000000AFH   SFRSYM    DATA     BYTE      IE2
      0000008EH   SFRSYM    DATA     BYTE      AUXR
      000000F0H   SFRSYM    DATA     BYTE      B
      000000C7H   SFRSYM    DATA     BYTE      IAP_CONTR
      000000E0H   SFRSYM    DATA     BYTE      ACC
      000000A8H.1 SFRSYM    DATA     BIT       ET0
      00000088H.5 SFRSYM    DATA     BIT       TF0
      000000A8H.3 SFRSYM    DATA     BIT       ET1
      00000088H.7 SFRSYM    DATA     BIT       TF1
      000000B5H   SFRSYM    DATA     BYTE      IP2
      00000098H.2 SFRSYM    DATA     BIT       RB8
      0000008CH   SFRSYM    DATA     BYTE      TH0
      0000008DH   SFRSYM    DATA     BYTE      TH1
      00000088H   SFRSYM    DATA     BIT       IT0
      000000A8H   SFRSYM    DATA     BIT       EX0
      00000098H.3 SFRSYM    DATA     BIT       TB8
      00000088H.2 SFRSYM    DATA     BIT       IT1
      000000A8H.2 SFRSYM    DATA     BIT       EX1
      000000D0H   SFRSYM    DATA     BIT       P
      00000098H.7 SFRSYM    DATA     BIT       SM0
      0000008AH   SFRSYM    DATA     BYTE      TL0
      00000098H.6 SFRSYM    DATA     BIT       SM1
      0000008BH   SFRSYM    DATA     BYTE      TL1
      00000098H.5 SFRSYM    DATA     BIT       SM2
      000000B8H.1 SFRSYM    DATA     BIT       PT0
      000000B8H.3 SFRSYM    DATA     BIT       PT1
      000000D0H.3 SFRSYM    DATA     BIT       RS0
      000000C2H   SFRSYM    DATA     BYTE      IAP_DATA
      00000088H.4 SFRSYM    DATA     BIT       TR0
      000000D0H.4 SFRSYM    DATA     BIT       RS1
LX51 LINKER/LOCATER V4.58                                                             10/24/2019  23:49:40  PAGE 30


      00000088H.6 SFRSYM    DATA     BIT       TR1
      000000C1H   SFRSYM    DATA     BYTE      WDT_CONTR
      000000B8H   SFRSYM    DATA     BIT       PX0
      000000B8H.2 SFRSYM    DATA     BIT       PX1
      000000F2H   SFRSYM    DATA     BYTE      PCA_PWM0
      000000F3H   SFRSYM    DATA     BYTE      PCA_PWM1
      0000009DH   SFRSYM    DATA     BYTE      P1ASF
      00000083H   SFRSYM    DATA     BYTE      DPH
      000000BEH   SFRSYM    DATA     BYTE      ADC_RESL
      00000082H   SFRSYM    DATA     BYTE      DPL
      000000CDH   SFRSYM    DATA     BYTE      SPSTAT
      000000B7H   SFRSYM    DATA     BYTE      IPH
      0000009BH   SFRSYM    DATA     BYTE      S2BUF
      00000098H.4 SFRSYM    DATA     BIT       REN
      0000009AH   SFRSYM    DATA     BYTE      S2CON
      0000009CH   SFRSYM    DATA     BYTE      BRT
      000000B9H   SFRSYM    DATA     BYTE      SADEN
      000000A9H   SFRSYM    DATA     BYTE      SADDR
      000000C6H   SFRSYM    DATA     BYTE      IAP_TRIG
      000000A2H   SFRSYM    DATA     BYTE      AUXR1
      000000D0H.5 SFRSYM    DATA     BIT       F0
      000000D0H   SFRSYM    DATA     BYTE      PSW
      000000D8H   SFRSYM    DATA     BIT       CCF0
      000000CFH   SFRSYM    DATA     BYTE      SPDAT
      000000D8H.1 SFRSYM    DATA     BIT       CCF1
      00000094H   SFRSYM    DATA     BYTE      P0M0
      01002598H   SYMBOL    CODE     ---       Get_Key_Level
      01002B39H   SYMBOL    CODE     ---       KEY0_ReadPin
      01002B3FH   SYMBOL    CODE     ---       KEY1_ReadPin
      01002B45H   SYMBOL    CODE     ---       KEY2_ReadPin
      01002B4BH   SYMBOL    CODE     ---       KEY3_ReadPin

      01002B39H   BLOCK     CODE     ---       LVL=0
      01002B39H   LINE      CODE     ---       #6
      01002B39H   LINE      CODE     ---       #7
      01002B39H   LINE      CODE     ---       #8
      01002B3EH   LINE      CODE     ---       #9
      ---         BLOCKEND  ---      ---       LVL=0

      01002B3FH   BLOCK     CODE     ---       LVL=0
      01002B3FH   LINE      CODE     ---       #11
      01002B3FH   LINE      CODE     ---       #12
      01002B3FH   LINE      CODE     ---       #13
      01002B44H   LINE      CODE     ---       #14
      ---         BLOCKEND  ---      ---       LVL=0

      01002B45H   BLOCK     CODE     ---       LVL=0
      01002B45H   LINE      CODE     ---       #16
      01002B45H   LINE      CODE     ---       #17
      01002B45H   LINE      CODE     ---       #18
      01002B4AH   LINE      CODE     ---       #19
      ---         BLOCKEND  ---      ---       LVL=0

      01002B4BH   BLOCK     CODE     ---       LVL=0
      01002B4BH   LINE      CODE     ---       #21
      01002B4BH   LINE      CODE     ---       #22
      01002B4BH   LINE      CODE     ---       #23
      01002B50H   LINE      CODE     ---       #24
      ---         BLOCKEND  ---      ---       LVL=0

      01002598H   BLOCK     CODE     ---       LVL=0
      01002598H   BLOCK     CODE     NEAR LAB  LVL=1
      00000008H   SYMBOL    DATA     BYTE      i
      ---         BLOCKEND  ---      ---       LVL=1
      01002598H   LINE      CODE     ---       #35
LX51 LINKER/LOCATER V4.58                                                             10/24/2019  23:49:40  PAGE 31


      01002598H   LINE      CODE     ---       #36
      01002598H   LINE      CODE     ---       #39
      0100259BH   LINE      CODE     ---       #40
      0100259BH   LINE      CODE     ---       #41
      010025A7H   LINE      CODE     ---       #42
      010025A7H   LINE      CODE     ---       #43
      010025C6H   LINE      CODE     ---       #44
      010025D3H   LINE      CODE     ---       #46
      010025DEH   LINE      CODE     ---       #47
      010025E7H   LINE      CODE     ---       #48
      ---         BLOCKEND  ---      ---       LVL=0

      0100231AH   BLOCK     CODE     ---       LVL=0
      0100231AH   BLOCK     CODE     NEAR LAB  LVL=1
      00000007H   SYMBOL    DATA     BYTE      i
      ---         BLOCKEND  ---      ---       LVL=1
      0100231AH   LINE      CODE     ---       #50
      0100231AH   LINE      CODE     ---       #51
      0100231AH   LINE      CODE     ---       #54
      0100231DH   LINE      CODE     ---       #56
      0100231FH   LINE      CODE     ---       #57
      0100231FH   LINE      CODE     ---       #58
      01002333H   LINE      CODE     ---       #59
      01002333H   LINE      CODE     ---       #61
      01002333H   LINE      CODE     ---       #62
      0100233FH   LINE      CODE     ---       #63
      0100233FH   LINE      CODE     ---       #64
      01002349H   LINE      CODE     ---       #65
      01002349H   LINE      CODE     ---       #66
      0100234BH   LINE      CODE     ---       #68
      0100234BH   LINE      CODE     ---       #69
      0100234BH   LINE      CODE     ---       #70
      0100234BH   LINE      CODE     ---       #71
      0100234DH   LINE      CODE     ---       #73
      0100234DH   LINE      CODE     ---       #74
      01002359H   LINE      CODE     ---       #75
      01002359H   LINE      CODE     ---       #76
      01002363H   LINE      CODE     ---       #77
      0100236DH   LINE      CODE     ---       #78
      01002374H   LINE      CODE     ---       #79
      01002376H   LINE      CODE     ---       #81
      01002376H   LINE      CODE     ---       #82
      01002380H   LINE      CODE     ---       #83
      01002387H   LINE      CODE     ---       #84
      01002387H   LINE      CODE     ---       #85
      01002389H   LINE      CODE     ---       #87
      01002389H   LINE      CODE     ---       #88
      01002396H   LINE      CODE     ---       #89
      01002396H   LINE      CODE     ---       #90
      010023A0H   LINE      CODE     ---       #91
      010023A0H   LINE      CODE     ---       #92
      010023A2H   LINE      CODE     ---       #100
      010023A2H   LINE      CODE     ---       #101
      010023ACH   LINE      CODE     ---       #102
      010023ACH   LINE      CODE     ---       #103
      010023ACH   LINE      CODE     ---       #123
      010023ACH   LINE      CODE     ---       #124
      010023B5H   LINE      CODE     ---       #125
      ---         BLOCKEND  ---      ---       LVL=0

      0100266DH   BLOCK     CODE     ---       LVL=0
      0100266DH   LINE      CODE     ---       #129
      0100266DH   LINE      CODE     ---       #130
      0100266DH   LINE      CODE     ---       #131
      01002670H   LINE      CODE     ---       #133
LX51 LINKER/LOCATER V4.58                                                             10/24/2019  23:49:40  PAGE 32


      01002675H   LINE      CODE     ---       #134
      01002675H   LINE      CODE     ---       #135
      0100267EH   LINE      CODE     ---       #136
      0100267EH   LINE      CODE     ---       #138
      01002683H   LINE      CODE     ---       #139
      01002683H   LINE      CODE     ---       #140
      0100268CH   LINE      CODE     ---       #141
      0100268CH   LINE      CODE     ---       #143
      01002691H   LINE      CODE     ---       #144
      01002691H   LINE      CODE     ---       #145
      0100269AH   LINE      CODE     ---       #146
      0100269AH   LINE      CODE     ---       #147
      0100269FH   LINE      CODE     ---       #148
      0100269FH   LINE      CODE     ---       #149
      010026A8H   LINE      CODE     ---       #150
      010026A8H   LINE      CODE     ---       #152
      ---         BLOCKEND  ---      ---       LVL=0

      ---         MODULE    ---      ---       E2PROM
      0000005DH   PUBLIC    DATA     ---       myparam
      0100262CH   PUBLIC    CODE     ---       _MyParamInit
      01002A4DH   PUBLIC    CODE     ---       _SetParam
      01002A0AH   PUBLIC    CODE     ---       _GetParam
      010020EBH   PUBLIC    CODE     ---       TestE2PROM
      00000058H   PUBLIC    DATA     BYTE      ?_TOF_Serial_Read?BYTE
      0100276AH   PUBLIC    CODE     ---       _TOF_Serial_Read
      00000053H   PUBLIC    DATA     BYTE      ?_TOF_Serial_Write?BYTE
      010028CBH   PUBLIC    CODE     ---       _TOF_Serial_Write
      01002A8BH   PUBLIC    CODE     ---       _IapEraseSector
      01002A37H   PUBLIC    CODE     ---       _IapWriteByte
      010029F3H   PUBLIC    CODE     ---       _IapReadByte
      01002AEBH   PUBLIC    CODE     ---       IapIdle
      00000092H   SFRSYM    DATA     BYTE      P1M0
      00000093H   SFRSYM    DATA     BYTE      P0M1
      00000096H   SFRSYM    DATA     BYTE      P2M0
      00000091H   SFRSYM    DATA     BYTE      P1M1
      00000080H   SFRSYM    DATA     BYTE      P0
      000000B2H   SFRSYM    DATA     BYTE      P3M0
      00000095H   SFRSYM    DATA     BYTE      P2M1
      00000090H   SFRSYM    DATA     BYTE      P1
      000000B4H   SFRSYM    DATA     BYTE      P4M0
      000000B1H   SFRSYM    DATA     BYTE      P3M1
      000000A0H   SFRSYM    DATA     BYTE      P2
      000000CAH   SFRSYM    DATA     BYTE      P5M0
      000000B3H   SFRSYM    DATA     BYTE      P4M1
      000000B0H   SFRSYM    DATA     BYTE      P3
      000000C9H   SFRSYM    DATA     BYTE      P5M1
      000000C0H   SFRSYM    DATA     BYTE      P4
      000000D0H.6 SFRSYM    DATA     BIT       AC
      000000C8H   SFRSYM    DATA     BYTE      P5
      000000A8H.7 SFRSYM    DATA     BIT       EA
      000000CEH   SFRSYM    DATA     BYTE      SPCTL
      000000D8H.7 SFRSYM    DATA     BIT       CF
      000000F9H   SFRSYM    DATA     BYTE      CH
      000000A8H.5 SFRSYM    DATA     BIT       EADC
      000000A8H   SFRSYM    DATA     BYTE      IE
      000000E9H   SFRSYM    DATA     BYTE      CL
      000000C5H   SFRSYM    DATA     BYTE      IAP_CMD
      000000FAH   SFRSYM    DATA     BYTE      CCAP0H
      000000FBH   SFRSYM    DATA     BYTE      CCAP1H
      000000BDH   SFRSYM    DATA     BYTE      ADC_RES
      000000B6H   SFRSYM    DATA     BYTE      IPH2
      000000EAH   SFRSYM    DATA     BYTE      CCAP0L
      000000D8H.6 SFRSYM    DATA     BIT       CR
      000000EBH   SFRSYM    DATA     BYTE      CCAP1L
LX51 LINKER/LOCATER V4.58                                                             10/24/2019  23:49:40  PAGE 33


      000000DAH   SFRSYM    DATA     BYTE      CCAPM0
      000000DBH   SFRSYM    DATA     BYTE      CCAPM1
      000000A8H.4 SFRSYM    DATA     BIT       ES
      000000B8H.5 SFRSYM    DATA     BIT       PADC
      000000B8H   SFRSYM    DATA     BYTE      IP
      00000098H   SFRSYM    DATA     BIT       RI
      000000D0H.7 SFRSYM    DATA     BIT       CY
      00000098H.1 SFRSYM    DATA     BIT       TI
      00000097H   SFRSYM    DATA     BYTE      CLK_DIV
      000000C3H   SFRSYM    DATA     BYTE      IAP_ADDRH
      000000B8H.4 SFRSYM    DATA     BIT       PS
      00000081H   SFRSYM    DATA     BYTE      SP
      000000C4H   SFRSYM    DATA     BYTE      IAP_ADDRL
      000000D9H   SFRSYM    DATA     BYTE      CMOD
      000000D8H   SFRSYM    DATA     BYTE      CCON
      000000B8H.7 SFRSYM    DATA     BIT       PPCA
      000000D0H.2 SFRSYM    DATA     BIT       OV
      000000A8H.6 SFRSYM    DATA     BIT       ELVD
      000000BBH   SFRSYM    DATA     BYTE      P4SW
      00000080H   SFRSYM    DATA     BIT       P00
      000000BCH   SFRSYM    DATA     BYTE      ADC_CONTR
      00000099H   SFRSYM    DATA     BYTE      SBUF
      00000090H   SFRSYM    DATA     BIT       P10
      00000080H.1 SFRSYM    DATA     BIT       P01
      00000087H   SFRSYM    DATA     BYTE      PCON
      000000A0H   SFRSYM    DATA     BIT       P20
      00000090H.1 SFRSYM    DATA     BIT       P11
      00000080H.2 SFRSYM    DATA     BIT       P02
      000000B0H   SFRSYM    DATA     BIT       P30
      000000A0H.1 SFRSYM    DATA     BIT       P21
      00000090H.2 SFRSYM    DATA     BIT       P12
      00000080H.3 SFRSYM    DATA     BIT       P03
      00000098H   SFRSYM    DATA     BYTE      SCON
      000000C0H   SFRSYM    DATA     BIT       P40
      000000B0H.1 SFRSYM    DATA     BIT       P31
      000000A0H.2 SFRSYM    DATA     BIT       P22
      00000090H.3 SFRSYM    DATA     BIT       P13
      00000080H.4 SFRSYM    DATA     BIT       P04
      0000008FH   SFRSYM    DATA     BYTE      WAKE_CLKO
      00000089H   SFRSYM    DATA     BYTE      TMOD
      00000088H   SFRSYM    DATA     BYTE      TCON
      000000C8H   SFRSYM    DATA     BIT       P50
      000000C0H.1 SFRSYM    DATA     BIT       P41
      000000B0H.2 SFRSYM    DATA     BIT       P32
      000000A0H.3 SFRSYM    DATA     BIT       P23
      00000090H.4 SFRSYM    DATA     BIT       P14
      00000080H.5 SFRSYM    DATA     BIT       P05
      000000C8H.1 SFRSYM    DATA     BIT       P51
      000000C0H.2 SFRSYM    DATA     BIT       P42
      000000B0H.3 SFRSYM    DATA     BIT       P33
      000000A0H.4 SFRSYM    DATA     BIT       P24
      00000090H.5 SFRSYM    DATA     BIT       P15
      00000080H.6 SFRSYM    DATA     BIT       P06
      000000C8H.2 SFRSYM    DATA     BIT       P52
      000000C0H.3 SFRSYM    DATA     BIT       P43
      000000B0H.4 SFRSYM    DATA     BIT       P34
      000000A0H.5 SFRSYM    DATA     BIT       P25
      00000090H.6 SFRSYM    DATA     BIT       P16
      00000080H.7 SFRSYM    DATA     BIT       P07
      000000B8H.6 SFRSYM    DATA     BIT       PLVD
      000000C8H.3 SFRSYM    DATA     BIT       P53
      000000C0H.4 SFRSYM    DATA     BIT       P44
      000000B0H.5 SFRSYM    DATA     BIT       P35
      000000A0H.6 SFRSYM    DATA     BIT       P26
      00000090H.7 SFRSYM    DATA     BIT       P17
LX51 LINKER/LOCATER V4.58                                                             10/24/2019  23:49:40  PAGE 34


      000000C0H.5 SFRSYM    DATA     BIT       P45
      000000B0H.6 SFRSYM    DATA     BIT       P36
      000000A0H.7 SFRSYM    DATA     BIT       P27
      000000C0H.6 SFRSYM    DATA     BIT       P46
      000000B0H.7 SFRSYM    DATA     BIT       P37
      000000C0H.7 SFRSYM    DATA     BIT       P47
      00000088H.1 SFRSYM    DATA     BIT       IE0
      000000A1H   SFRSYM    DATA     BYTE      BUS_SPEED
      00000088H.3 SFRSYM    DATA     BIT       IE1
      000000AFH   SFRSYM    DATA     BYTE      IE2
      0000008EH   SFRSYM    DATA     BYTE      AUXR
      000000F0H   SFRSYM    DATA     BYTE      B
      000000C7H   SFRSYM    DATA     BYTE      IAP_CONTR
      000000E0H   SFRSYM    DATA     BYTE      ACC
      000000A8H.1 SFRSYM    DATA     BIT       ET0
      00000088H.5 SFRSYM    DATA     BIT       TF0
      000000A8H.3 SFRSYM    DATA     BIT       ET1
      00000088H.7 SFRSYM    DATA     BIT       TF1
      000000B5H   SFRSYM    DATA     BYTE      IP2
      00000098H.2 SFRSYM    DATA     BIT       RB8
      0000008CH   SFRSYM    DATA     BYTE      TH0
      0000008DH   SFRSYM    DATA     BYTE      TH1
      00000088H   SFRSYM    DATA     BIT       IT0
      000000A8H   SFRSYM    DATA     BIT       EX0
      00000098H.3 SFRSYM    DATA     BIT       TB8
      00000088H.2 SFRSYM    DATA     BIT       IT1
      000000A8H.2 SFRSYM    DATA     BIT       EX1
      000000D0H   SFRSYM    DATA     BIT       P
      00000098H.7 SFRSYM    DATA     BIT       SM0
      0000008AH   SFRSYM    DATA     BYTE      TL0
      00000098H.6 SFRSYM    DATA     BIT       SM1
      0000008BH   SFRSYM    DATA     BYTE      TL1
      00000098H.5 SFRSYM    DATA     BIT       SM2
      000000B8H.1 SFRSYM    DATA     BIT       PT0
      000000B8H.3 SFRSYM    DATA     BIT       PT1
      000000D0H.3 SFRSYM    DATA     BIT       RS0
      000000C2H   SFRSYM    DATA     BYTE      IAP_DATA
      00000088H.4 SFRSYM    DATA     BIT       TR0
      000000D0H.4 SFRSYM    DATA     BIT       RS1
      00000088H.6 SFRSYM    DATA     BIT       TR1
      000000C1H   SFRSYM    DATA     BYTE      WDT_CONTR
      000000B8H   SFRSYM    DATA     BIT       PX0
      000000B8H.2 SFRSYM    DATA     BIT       PX1
      000000F2H   SFRSYM    DATA     BYTE      PCA_PWM0
      000000F3H   SFRSYM    DATA     BYTE      PCA_PWM1
      0000009DH   SFRSYM    DATA     BYTE      P1ASF
      00000083H   SFRSYM    DATA     BYTE      DPH
      000000BEH   SFRSYM    DATA     BYTE      ADC_RESL
      00000082H   SFRSYM    DATA     BYTE      DPL
      000000CDH   SFRSYM    DATA     BYTE      SPSTAT
      000000B7H   SFRSYM    DATA     BYTE      IPH
      0000009BH   SFRSYM    DATA     BYTE      S2BUF
      00000098H.4 SFRSYM    DATA     BIT       REN
      0000009AH   SFRSYM    DATA     BYTE      S2CON
      0000009CH   SFRSYM    DATA     BYTE      BRT
      000000B9H   SFRSYM    DATA     BYTE      SADEN
      000000A9H   SFRSYM    DATA     BYTE      SADDR
      000000C6H   SFRSYM    DATA     BYTE      IAP_TRIG
      000000A2H   SFRSYM    DATA     BYTE      AUXR1
      000000D0H.5 SFRSYM    DATA     BIT       F0
      000000D0H   SFRSYM    DATA     BYTE      PSW
      000000D8H   SFRSYM    DATA     BIT       CCF0
      000000CFH   SFRSYM    DATA     BYTE      SPDAT
      000000D8H.1 SFRSYM    DATA     BIT       CCF1
      00000094H   SFRSYM    DATA     BYTE      P0M0
LX51 LINKER/LOCATER V4.58                                                             10/24/2019  23:49:40  PAGE 35


      01002A77H   SYMBOL    CODE     ---       _Delay

      01002A77H   BLOCK     CODE     ---       LVL=0
      00000007H   SYMBOL    DATA     BYTE      n
      01002A77H   BLOCK     CODE     NEAR LAB  LVL=1
      00000004H   SYMBOL    DATA     WORD      x
      ---         BLOCKEND  ---      ---       LVL=1
      01002A77H   LINE      CODE     ---       #13
      01002A77H   LINE      CODE     ---       #14
      01002A77H   LINE      CODE     ---       #17
      01002A7DH   LINE      CODE     ---       #18
      01002A7DH   LINE      CODE     ---       #19
      01002A80H   LINE      CODE     ---       #20
      01002A8AH   LINE      CODE     ---       #22
      ---         BLOCKEND  ---      ---       LVL=0

      01002AEBH   BLOCK     CODE     ---       LVL=0
      01002AEBH   LINE      CODE     ---       #28
      01002AEBH   LINE      CODE     ---       #29
      01002AEBH   LINE      CODE     ---       #30
      01002AEEH   LINE      CODE     ---       #31
      01002AF0H   LINE      CODE     ---       #32
      01002AF2H   LINE      CODE     ---       #33
      01002AF5H   LINE      CODE     ---       #34
      01002AF7H   LINE      CODE     ---       #35
      ---         BLOCKEND  ---      ---       LVL=0

      010029F3H   BLOCK     CODE     ---       LVL=0
      00000006H   SYMBOL    DATA     WORD      addr
      010029F3H   BLOCK     CODE     NEAR LAB  LVL=1
      00000007H   SYMBOL    DATA     BYTE      dat
      ---         BLOCKEND  ---      ---       LVL=1
      010029F3H   LINE      CODE     ---       #42
      010029F3H   LINE      CODE     ---       #43
      010029F3H   LINE      CODE     ---       #46
      010029F6H   LINE      CODE     ---       #47
      010029F9H   LINE      CODE     ---       #48
      010029FBH   LINE      CODE     ---       #49
      010029FDH   LINE      CODE     ---       #50
      01002A00H   LINE      CODE     ---       #51
      01002A03H   LINE      CODE     ---       #52
      01002A04H   LINE      CODE     ---       #53
      01002A06H   LINE      CODE     ---       #54
      01002A09H   LINE      CODE     ---       #56
      01002A09H   LINE      CODE     ---       #57
      ---         BLOCKEND  ---      ---       LVL=0

      01002A37H   BLOCK     CODE     ---       LVL=0
      00000006H   SYMBOL    DATA     WORD      addr
      00000005H   SYMBOL    DATA     BYTE      dat
      01002A37H   LINE      CODE     ---       #65
      01002A37H   LINE      CODE     ---       #66
      01002A37H   LINE      CODE     ---       #67
      01002A3AH   LINE      CODE     ---       #68
      01002A3DH   LINE      CODE     ---       #69
      01002A3FH   LINE      CODE     ---       #70
      01002A41H   LINE      CODE     ---       #71
      01002A43H   LINE      CODE     ---       #72
      01002A46H   LINE      CODE     ---       #73
      01002A49H   LINE      CODE     ---       #74
      01002A4AH   LINE      CODE     ---       #75
      ---         BLOCKEND  ---      ---       LVL=0

      01002A8BH   BLOCK     CODE     ---       LVL=0
      00000006H   SYMBOL    DATA     WORD      addr
LX51 LINKER/LOCATER V4.58                                                             10/24/2019  23:49:40  PAGE 36


      01002A8BH   LINE      CODE     ---       #83
      01002A8BH   LINE      CODE     ---       #84
      01002A8BH   LINE      CODE     ---       #85
      01002A8EH   LINE      CODE     ---       #86
      01002A91H   LINE      CODE     ---       #87
      01002A93H   LINE      CODE     ---       #88
      01002A95H   LINE      CODE     ---       #89
      01002A98H   LINE      CODE     ---       #90
      01002A9BH   LINE      CODE     ---       #91
      01002A9CH   LINE      CODE     ---       #92
      ---         BLOCKEND  ---      ---       LVL=0

      010028CBH   BLOCK     CODE     ---       LVL=0
      00000004H   SYMBOL    DATA     BYTE      Writeaddr
      00000001H   SYMBOL    DATA     ---       Str
      00000057H   SYMBOL    DATA     BYTE      Len
      010028CBH   LINE      CODE     ---       #100
      010028CDH   LINE      CODE     ---       #101
      010028CDH   LINE      CODE     ---       #102
      010028D4H   LINE      CODE     ---       #103
      010028D4H   LINE      CODE     ---       #104
      010028DFH   LINE      CODE     ---       #105
      010028E0H   LINE      CODE     ---       #106
      010028E7H   LINE      CODE     ---       #107
      010028E9H   LINE      CODE     ---       #108
      ---         BLOCKEND  ---      ---       LVL=0

      0100276AH   BLOCK     CODE     ---       LVL=0
      00000005H   SYMBOL    DATA     BYTE      Readaddr
      00000059H   SYMBOL    DATA     ---       Str
      0000005CH   SYMBOL    DATA     BYTE      Len
      0100276AH   LINE      CODE     ---       #117
      01002772H   LINE      CODE     ---       #118
      01002772H   LINE      CODE     ---       #119
      01002776H   LINE      CODE     ---       #120
      01002776H   LINE      CODE     ---       #121
      01002790H   LINE      CODE     ---       #122
      01002792H   LINE      CODE     ---       #123
      01002794H   LINE      CODE     ---       #124
      ---         BLOCKEND  ---      ---       LVL=0

      010020EBH   BLOCK     CODE     ---       LVL=0
      010020EBH   BLOCK     CODE     NEAR LAB  LVL=1
      0000001EH   SYMBOL    DATA     WORD      i
      ---         BLOCKEND  ---      ---       LVL=1
      010020EBH   LINE      CODE     ---       #126
      010020EBH   LINE      CODE     ---       #127
      010020EBH   LINE      CODE     ---       #129
      010020F1H   LINE      CODE     ---       #130
      010020FAH   LINE      CODE     ---       #131
      010020FFH   LINE      CODE     ---       #132
      010020FFH   LINE      CODE     ---       #133
      01002111H   LINE      CODE     ---       #134
      01002122H   LINE      CODE     ---       #135
      0100212BH   LINE      CODE     ---       #137
      01002130H   LINE      CODE     ---       #138
      01002139H   LINE      CODE     ---       #139
      0100213EH   LINE      CODE     ---       #140
      0100213EH   LINE      CODE     ---       #141
      01002147H   LINE      CODE     ---       #142
      01002153H   LINE      CODE     ---       #143
      01002164H   LINE      CODE     ---       #144
      0100216DH   LINE      CODE     ---       #145
      01002172H   LINE      CODE     ---       #146
      0100217BH   LINE      CODE     ---       #147
LX51 LINKER/LOCATER V4.58                                                             10/24/2019  23:49:40  PAGE 37


      01002180H   LINE      CODE     ---       #148
      01002180H   LINE      CODE     ---       #149
      01002192H   LINE      CODE     ---       #150
      010021A3H   LINE      CODE     ---       #151
      010021ACH   LINE      CODE     ---       #152
      ---         BLOCKEND  ---      ---       LVL=0

      01002A0AH   BLOCK     CODE     ---       LVL=0
      00000001H   SYMBOL    DATA     ---       param
      01002A0AH   LINE      CODE     ---       #155
      01002A0AH   LINE      CODE     ---       #156
      01002A0AH   LINE      CODE     ---       #157
      01002A15H   LINE      CODE     ---       #158
      ---         BLOCKEND  ---      ---       LVL=0

      01002A4DH   BLOCK     CODE     ---       LVL=0
      00000001H   SYMBOL    DATA     ---       param
      01002A4DH   LINE      CODE     ---       #161
      01002A4DH   LINE      CODE     ---       #162
      01002A4DH   LINE      CODE     ---       #163
      01002A58H   LINE      CODE     ---       #164
      ---         BLOCKEND  ---      ---       LVL=0

      0100262CH   BLOCK     CODE     ---       LVL=0
      00000008H   SYMBOL    DATA     ---       param
      0100262CH   LINE      CODE     ---       #168
      01002632H   LINE      CODE     ---       #169
      01002632H   LINE      CODE     ---       #170
      0100263EH   LINE      CODE     ---       #171
      0100263EH   LINE      CODE     ---       #172
      01002643H   LINE      CODE     ---       #173
      01002648H   LINE      CODE     ---       #174
      01002653H   LINE      CODE     ---       #175
      01002661H   LINE      CODE     ---       #176
      01002664H   LINE      CODE     ---       #178
      01002664H   LINE      CODE     ---       #179
      ---         BLOCKEND  ---      ---       LVL=0

      ---         MODULE    ---      ---       TOF10120
      0100273DH   PUBLIC    CODE     ---       _GetDistance
      01002795H   PUBLIC    CODE     ---       _TOF_Read_Byte
      01002838H   PUBLIC    CODE     ---       _TOF_Write_Byte
      01002B54H   PUBLIC    CODE     ---       TOF_Init
      01002886H   PUBLIC    CODE     ---       IIC_Read_Byte
      010026E2H   PUBLIC    CODE     ---       _IIC_Write_Byte
      01002ADDH   PUBLIC    CODE     ---       IIC_NAck
      010028B1H   PUBLIC    CODE     ---       IIC_Ack
      01002ACFH   PUBLIC    CODE     ---       IO_Init
      00000092H   SFRSYM    DATA     BYTE      P1M0
      00000093H   SFRSYM    DATA     BYTE      P0M1
      00000096H   SFRSYM    DATA     BYTE      P2M0
      00000091H   SFRSYM    DATA     BYTE      P1M1
      00000080H   SFRSYM    DATA     BYTE      P0
      000000B2H   SFRSYM    DATA     BYTE      P3M0
      00000095H   SFRSYM    DATA     BYTE      P2M1
      00000090H   SFRSYM    DATA     BYTE      P1
      000000B4H   SFRSYM    DATA     BYTE      P4M0
      000000B1H   SFRSYM    DATA     BYTE      P3M1
      000000A0H   SFRSYM    DATA     BYTE      P2
      000000CAH   SFRSYM    DATA     BYTE      P5M0
      000000B3H   SFRSYM    DATA     BYTE      P4M1
      000000B0H   SFRSYM    DATA     BYTE      P3
      000000C9H   SFRSYM    DATA     BYTE      P5M1
      000000C0H   SFRSYM    DATA     BYTE      P4
      000000D0H.6 SFRSYM    DATA     BIT       AC
LX51 LINKER/LOCATER V4.58                                                             10/24/2019  23:49:40  PAGE 38


      000000C8H   SFRSYM    DATA     BYTE      P5
      000000A8H.7 SFRSYM    DATA     BIT       EA
      000000CEH   SFRSYM    DATA     BYTE      SPCTL
      000000D8H.7 SFRSYM    DATA     BIT       CF
      000000F9H   SFRSYM    DATA     BYTE      CH
      000000A8H.5 SFRSYM    DATA     BIT       EADC
      000000A8H   SFRSYM    DATA     BYTE      IE
      000000A0H.1 SFRSYM    DATA     BIT       IIC_SDA
      000000E9H   SFRSYM    DATA     BYTE      CL
      000000C5H   SFRSYM    DATA     BYTE      IAP_CMD
      000000FAH   SFRSYM    DATA     BYTE      CCAP0H
      000000FBH   SFRSYM    DATA     BYTE      CCAP1H
      000000BDH   SFRSYM    DATA     BYTE      ADC_RES
      000000B6H   SFRSYM    DATA     BYTE      IPH2
      000000EAH   SFRSYM    DATA     BYTE      CCAP0L
      000000D8H.6 SFRSYM    DATA     BIT       CR
      000000EBH   SFRSYM    DATA     BYTE      CCAP1L
      000000DAH   SFRSYM    DATA     BYTE      CCAPM0
      000000DBH   SFRSYM    DATA     BYTE      CCAPM1
      000000A8H.4 SFRSYM    DATA     BIT       ES
      000000A0H   SFRSYM    DATA     BIT       IIC_SCL
      000000B8H.5 SFRSYM    DATA     BIT       PADC
      000000B8H   SFRSYM    DATA     BYTE      IP
      00000098H   SFRSYM    DATA     BIT       RI
      000000D0H.7 SFRSYM    DATA     BIT       CY
      00000098H.1 SFRSYM    DATA     BIT       TI
      00000097H   SFRSYM    DATA     BYTE      CLK_DIV
      000000C3H   SFRSYM    DATA     BYTE      IAP_ADDRH
      000000B8H.4 SFRSYM    DATA     BIT       PS
      00000081H   SFRSYM    DATA     BYTE      SP
      000000C4H   SFRSYM    DATA     BYTE      IAP_ADDRL
      000000D9H   SFRSYM    DATA     BYTE      CMOD
      000000D8H   SFRSYM    DATA     BYTE      CCON
      000000B8H.7 SFRSYM    DATA     BIT       PPCA
      000000D0H.2 SFRSYM    DATA     BIT       OV
      000000A8H.6 SFRSYM    DATA     BIT       ELVD
      000000BBH   SFRSYM    DATA     BYTE      P4SW
      00000080H   SFRSYM    DATA     BIT       P00
      000000BCH   SFRSYM    DATA     BYTE      ADC_CONTR
      00000099H   SFRSYM    DATA     BYTE      SBUF
      00000090H   SFRSYM    DATA     BIT       P10
      00000080H.1 SFRSYM    DATA     BIT       P01
      00000087H   SFRSYM    DATA     BYTE      PCON
      000000A0H   SFRSYM    DATA     BIT       P20
      00000090H.1 SFRSYM    DATA     BIT       P11
      00000080H.2 SFRSYM    DATA     BIT       P02
      000000B0H   SFRSYM    DATA     BIT       P30
      000000A0H.1 SFRSYM    DATA     BIT       P21
      00000090H.2 SFRSYM    DATA     BIT       P12
      00000080H.3 SFRSYM    DATA     BIT       P03
      00000098H   SFRSYM    DATA     BYTE      SCON
      000000C0H   SFRSYM    DATA     BIT       P40
      000000B0H.1 SFRSYM    DATA     BIT       P31
      000000A0H.2 SFRSYM    DATA     BIT       P22
      00000090H.3 SFRSYM    DATA     BIT       P13
      00000080H.4 SFRSYM    DATA     BIT       P04
      0000008FH   SFRSYM    DATA     BYTE      WAKE_CLKO
      00000089H   SFRSYM    DATA     BYTE      TMOD
      00000088H   SFRSYM    DATA     BYTE      TCON
      000000C8H   SFRSYM    DATA     BIT       P50
      000000C0H.1 SFRSYM    DATA     BIT       P41
      000000B0H.2 SFRSYM    DATA     BIT       P32
      000000A0H.3 SFRSYM    DATA     BIT       P23
      00000090H.4 SFRSYM    DATA     BIT       P14
      00000080H.5 SFRSYM    DATA     BIT       P05
LX51 LINKER/LOCATER V4.58                                                             10/24/2019  23:49:40  PAGE 39


      000000C8H.1 SFRSYM    DATA     BIT       P51
      000000C0H.2 SFRSYM    DATA     BIT       P42
      000000B0H.3 SFRSYM    DATA     BIT       P33
      000000A0H.4 SFRSYM    DATA     BIT       P24
      00000090H.5 SFRSYM    DATA     BIT       P15
      00000080H.6 SFRSYM    DATA     BIT       P06
      000000C8H.2 SFRSYM    DATA     BIT       P52
      000000C0H.3 SFRSYM    DATA     BIT       P43
      000000B0H.4 SFRSYM    DATA     BIT       P34
      000000A0H.5 SFRSYM    DATA     BIT       P25
      00000090H.6 SFRSYM    DATA     BIT       P16
      00000080H.7 SFRSYM    DATA     BIT       P07
      000000B8H.6 SFRSYM    DATA     BIT       PLVD
      000000C8H.3 SFRSYM    DATA     BIT       P53
      000000C0H.4 SFRSYM    DATA     BIT       P44
      000000B0H.5 SFRSYM    DATA     BIT       P35
      000000A0H.6 SFRSYM    DATA     BIT       P26
      00000090H.7 SFRSYM    DATA     BIT       P17
      000000C0H.5 SFRSYM    DATA     BIT       P45
      000000B0H.6 SFRSYM    DATA     BIT       P36
      000000A0H.7 SFRSYM    DATA     BIT       P27
      000000C0H.6 SFRSYM    DATA     BIT       P46
      000000B0H.7 SFRSYM    DATA     BIT       P37
      000000C0H.7 SFRSYM    DATA     BIT       P47
      00000088H.1 SFRSYM    DATA     BIT       IE0
      000000A1H   SFRSYM    DATA     BYTE      BUS_SPEED
      00000088H.3 SFRSYM    DATA     BIT       IE1
      000000AFH   SFRSYM    DATA     BYTE      IE2
      0000008EH   SFRSYM    DATA     BYTE      AUXR
      000000F0H   SFRSYM    DATA     BYTE      B
      000000C7H   SFRSYM    DATA     BYTE      IAP_CONTR
      000000E0H   SFRSYM    DATA     BYTE      ACC
      000000A8H.1 SFRSYM    DATA     BIT       ET0
      00000088H.5 SFRSYM    DATA     BIT       TF0
      000000A8H.3 SFRSYM    DATA     BIT       ET1
      00000088H.7 SFRSYM    DATA     BIT       TF1
      000000B5H   SFRSYM    DATA     BYTE      IP2
      00000098H.2 SFRSYM    DATA     BIT       RB8
      0000008CH   SFRSYM    DATA     BYTE      TH0
      0000008DH   SFRSYM    DATA     BYTE      TH1
      00000088H   SFRSYM    DATA     BIT       IT0
      000000A8H   SFRSYM    DATA     BIT       EX0
      00000098H.3 SFRSYM    DATA     BIT       TB8
      00000088H.2 SFRSYM    DATA     BIT       IT1
      000000A8H.2 SFRSYM    DATA     BIT       EX1
      000000D0H   SFRSYM    DATA     BIT       P
      00000098H.7 SFRSYM    DATA     BIT       SM0
      0000008AH   SFRSYM    DATA     BYTE      TL0
      00000098H.6 SFRSYM    DATA     BIT       SM1
      0000008BH   SFRSYM    DATA     BYTE      TL1
      00000098H.5 SFRSYM    DATA     BIT       SM2
      000000B8H.1 SFRSYM    DATA     BIT       PT0
      000000B8H.3 SFRSYM    DATA     BIT       PT1
      000000D0H.3 SFRSYM    DATA     BIT       RS0
      000000C2H   SFRSYM    DATA     BYTE      IAP_DATA
      00000088H.4 SFRSYM    DATA     BIT       TR0
      000000D0H.4 SFRSYM    DATA     BIT       RS1
      00000088H.6 SFRSYM    DATA     BIT       TR1
      000000C1H   SFRSYM    DATA     BYTE      WDT_CONTR
      000000B8H   SFRSYM    DATA     BIT       PX0
      000000B8H.2 SFRSYM    DATA     BIT       PX1
      000000F2H   SFRSYM    DATA     BYTE      PCA_PWM0
      000000F3H   SFRSYM    DATA     BYTE      PCA_PWM1
      0000009DH   SFRSYM    DATA     BYTE      P1ASF
      00000083H   SFRSYM    DATA     BYTE      DPH
LX51 LINKER/LOCATER V4.58                                                             10/24/2019  23:49:40  PAGE 40


      000000BEH   SFRSYM    DATA     BYTE      ADC_RESL
      00000082H   SFRSYM    DATA     BYTE      DPL
      000000CDH   SFRSYM    DATA     BYTE      SPSTAT
      000000B7H   SFRSYM    DATA     BYTE      IPH
      0000009BH   SFRSYM    DATA     BYTE      S2BUF
      00000098H.4 SFRSYM    DATA     BIT       REN
      0000009AH   SFRSYM    DATA     BYTE      S2CON
      0000009CH   SFRSYM    DATA     BYTE      BRT
      000000B9H   SFRSYM    DATA     BYTE      SADEN
      000000A9H   SFRSYM    DATA     BYTE      SADDR
      000000C6H   SFRSYM    DATA     BYTE      IAP_TRIG
      000000A2H   SFRSYM    DATA     BYTE      AUXR1
      000000D0H.5 SFRSYM    DATA     BIT       F0
      000000D0H   SFRSYM    DATA     BYTE      PSW
      000000D8H   SFRSYM    DATA     BIT       CCF0
      000000CFH   SFRSYM    DATA     BYTE      SPDAT
      000000D8H.1 SFRSYM    DATA     BIT       CCF1
      00000094H   SFRSYM    DATA     BYTE      P0M0
      01002B03H   SYMBOL    CODE     ---       Delay1ms
      01002B51H   SYMBOL    CODE     ---       Delay1us
      01002AC0H   SYMBOL    CODE     ---       IIC_Start
      01002993H   SYMBOL    CODE     ---       _delay_ms
      01002978H   SYMBOL    CODE     ---       _delay_us
      01002A9FH   SYMBOL    CODE     ---       IIC_Stop

      01002B51H   BLOCK     CODE     ---       LVL=0
      01002B51H   LINE      CODE     ---       #10
      01002B51H   LINE      CODE     ---       #11
      01002B51H   LINE      CODE     ---       #12
      01002B52H   LINE      CODE     ---       #13
      01002B53H   LINE      CODE     ---       #14
      ---         BLOCKEND  ---      ---       LVL=0

      01002B03H   BLOCK     CODE     ---       LVL=0
      01002B03H   BLOCK     CODE     NEAR LAB  LVL=1
      00000007H   SYMBOL    DATA     BYTE      i
      00000006H   SYMBOL    DATA     BYTE      j
      ---         BLOCKEND  ---      ---       LVL=1
      01002B03H   LINE      CODE     ---       #16
      01002B03H   LINE      CODE     ---       #17
      01002B03H   LINE      CODE     ---       #20
      01002B04H   LINE      CODE     ---       #21
      01002B05H   LINE      CODE     ---       #22
      01002B07H   LINE      CODE     ---       #23
      01002B09H   LINE      CODE     ---       #25
      01002B09H   LINE      CODE     ---       #26
      01002B0BH   LINE      CODE     ---       #27
      01002B0DH   LINE      CODE     ---       #28
      ---         BLOCKEND  ---      ---       LVL=0

      01002978H   BLOCK     CODE     ---       LVL=0
      ---         BLOCKEND  ---      ---       LVL=0

      01002983H   BLOCK     CODE     ---       LVL=0
      00000006H   SYMBOL    DATA     WORD      nus
      01002983H   LINE      CODE     ---       #30
      01002983H   LINE      CODE     ---       #31
      01002983H   LINE      CODE     ---       #32
      0100298DH   LINE      CODE     ---       #33
      0100298DH   LINE      CODE     ---       #34
      01002990H   LINE      CODE     ---       #35
      01002992H   LINE      CODE     ---       #36
      ---         BLOCKEND  ---      ---       LVL=0

      01002993H   BLOCK     CODE     ---       LVL=0
LX51 LINKER/LOCATER V4.58                                                             10/24/2019  23:49:40  PAGE 41


      ---         BLOCKEND  ---      ---       LVL=0

      01002999H   BLOCK     CODE     ---       LVL=0
      00000004H   SYMBOL    DATA     WORD      nms
      01002999H   LINE      CODE     ---       #40
      0100299DH   LINE      CODE     ---       #41
      0100299DH   LINE      CODE     ---       #42
      010029A7H   LINE      CODE     ---       #43
      010029A7H   LINE      CODE     ---       #44
      010029AAH   LINE      CODE     ---       #45
      010029ACH   LINE      CODE     ---       #47
      ---         BLOCKEND  ---      ---       LVL=0

      01002ACFH   BLOCK     CODE     ---       LVL=0
      01002ACFH   LINE      CODE     ---       #54
      01002ACFH   LINE      CODE     ---       #55
      01002ACFH   LINE      CODE     ---       #56
      01002AD1H   LINE      CODE     ---       #57
      01002AD4H   LINE      CODE     ---       #58
      01002AD6H   LINE      CODE     ---       #59
      ---         BLOCKEND  ---      ---       LVL=0

      01002AC0H   BLOCK     CODE     ---       LVL=0
      01002AC0H   LINE      CODE     ---       #68
      01002AC0H   LINE      CODE     ---       #69
      01002AC0H   LINE      CODE     ---       #70
      01002AC2H   LINE      CODE     ---       #71
      01002AC4H   LINE      CODE     ---       #72
      01002AC7H   LINE      CODE     ---       #73
      01002AC9H   LINE      CODE     ---       #74
      01002ACCH   LINE      CODE     ---       #75
      01002ACEH   LINE      CODE     ---       #76
      ---         BLOCKEND  ---      ---       LVL=0

      01002A9FH   BLOCK     CODE     ---       LVL=0
      01002A9FH   LINE      CODE     ---       #84
      01002A9FH   LINE      CODE     ---       #85
      01002A9FH   LINE      CODE     ---       #86
      01002AA1H   LINE      CODE     ---       #87
      01002AA3H   LINE      CODE     ---       #88
      01002AA6H   LINE      CODE     ---       #89
      01002AA8H   LINE      CODE     ---       #90
      01002AAAH   LINE      CODE     ---       #91
      ---         BLOCKEND  ---      ---       LVL=0

      010028A9H   BLOCK     CODE     ---       LVL=0
      ---         BLOCKEND  ---      ---       LVL=0

      010028B1H   BLOCK     CODE     ---       LVL=0
      0000000AH   SYMBOL    DATA     BYTE      i
      010028B1H   BLOCK     CODE     NEAR LAB  LVL=1
      0000000AH   SYMBOL    DATA     BYTE      i
      ---         BLOCKEND  ---      ---       LVL=1
      010028B1H   LINE      CODE     ---       #100
      010028B1H   LINE      CODE     ---       #101
      010028B1H   LINE      CODE     ---       #104
      010028B1H   LINE      CODE     ---       #105
      010028B4H   LINE      CODE     ---       #106
      010028BEH   LINE      CODE     ---       #107
      010028C2H   LINE      CODE     ---       #108
      010028C4H   LINE      CODE     ---       #109
      ---         BLOCKEND  ---      ---       LVL=0

      01002ADDH   BLOCK     CODE     ---       LVL=0
      01002ADDH   LINE      CODE     ---       #118
LX51 LINKER/LOCATER V4.58                                                             10/24/2019  23:49:40  PAGE 42


      01002ADDH   LINE      CODE     ---       #119
      01002ADDH   LINE      CODE     ---       #120
      01002ADDH   LINE      CODE     ---       #121
      01002AE0H   LINE      CODE     ---       #122
      01002AE2H   LINE      CODE     ---       #123
      01002AE4H   LINE      CODE     ---       #124
      ---         BLOCKEND  ---      ---       LVL=0

      010026E2H   BLOCK     CODE     ---       LVL=0
      00000005H   SYMBOL    DATA     BYTE      txd
      010026E4H   BLOCK     CODE     NEAR LAB  LVL=1
      00000003H   SYMBOL    DATA     BYTE      len
      ---         BLOCKEND  ---      ---       LVL=1
      010026E2H   LINE      CODE     ---       #133
      010026E4H   LINE      CODE     ---       #134
      010026E4H   LINE      CODE     ---       #137
      010026E6H   LINE      CODE     ---       #138
      010026E6H   LINE      CODE     ---       #139
      010026E6H   LINE      CODE     ---       #140
      010026E9H   LINE      CODE     ---       #141
      010026EDH   LINE      CODE     ---       #142
      010026F1H   LINE      CODE     ---       #144
      010026F3H   LINE      CODE     ---       #145
      010026F6H   LINE      CODE     ---       #146
      010026F8H   LINE      CODE     ---       #147
      010026FCH   LINE      CODE     ---       #148
      010026FEH   LINE      CODE     ---       #149
      010026FEH   LINE      CODE     ---       #150
      01002701H   LINE      CODE     ---       #151
      01002705H   LINE      CODE     ---       #152
      01002707H   LINE      CODE     ---       #153
      01002709H   LINE      CODE     ---       #154
      ---         BLOCKEND  ---      ---       LVL=0

      01002886H   BLOCK     CODE     ---       LVL=0
      01002886H   BLOCK     CODE     NEAR LAB  LVL=1
      00000003H   SYMBOL    DATA     BYTE      len
      00000005H   SYMBOL    DATA     BYTE      dat
      ---         BLOCKEND  ---      ---       LVL=1
      01002886H   LINE      CODE     ---       #163
      01002886H   LINE      CODE     ---       #164
      01002886H   LINE      CODE     ---       #165
      01002888H   LINE      CODE     ---       #167
      0100288AH   LINE      CODE     ---       #168
      0100288BH   LINE      CODE     ---       #169
      0100288BH   LINE      CODE     ---       #171
      0100288BH   LINE      CODE     ---       #172
      0100288EH   LINE      CODE     ---       #173
      01002890H   LINE      CODE     ---       #174
      01002893H   LINE      CODE     ---       #175
      01002897H   LINE      CODE     ---       #176
      0100289DH   LINE      CODE     ---       #177
      0100289FH   LINE      CODE     ---       #178
      0100289FH   LINE      CODE     ---       #179
      010028A2H   LINE      CODE     ---       #180
      010028A6H   LINE      CODE     ---       #182
      010028A8H   LINE      CODE     ---       #183
      ---         BLOCKEND  ---      ---       LVL=0

      01002B54H   BLOCK     CODE     ---       LVL=0
      01002B54H   LINE      CODE     ---       #194
      01002B54H   LINE      CODE     ---       #195
      01002B54H   LINE      CODE     ---       #196
      ---         BLOCKEND  ---      ---       LVL=0

LX51 LINKER/LOCATER V4.58                                                             10/24/2019  23:49:40  PAGE 43


      01002838H   BLOCK     CODE     ---       LVL=0
      00000001H   SYMBOL    DATA     BYTE      addr
      00000002H   SYMBOL    DATA     BYTE      dat
      01002838H   LINE      CODE     ---       #205
      0100283CH   LINE      CODE     ---       #206
      0100283CH   LINE      CODE     ---       #207
      0100283CH   LINE      CODE     ---       #208
      0100283CH   LINE      CODE     ---       #209
      0100283FH   LINE      CODE     ---       #210
      01002844H   LINE      CODE     ---       #211
      01002847H   LINE      CODE     ---       #213
      0100284EH   LINE      CODE     ---       #215
      01002853H   LINE      CODE     ---       #216
      01002856H   LINE      CODE     ---       #217
      01002859H   LINE      CODE     ---       #218
      ---         BLOCKEND  ---      ---       LVL=0

      01002795H   BLOCK     CODE     ---       LVL=0
      00000002H   SYMBOL    DATA     BYTE      addr
      01002797H   BLOCK     CODE     NEAR LAB  LVL=1
      00000005H   SYMBOL    DATA     BYTE      dat
      ---         BLOCKEND  ---      ---       LVL=1
      01002795H   LINE      CODE     ---       #227
      01002797H   LINE      CODE     ---       #228
      01002797H   LINE      CODE     ---       #231
      01002797H   LINE      CODE     ---       #232
      01002797H   LINE      CODE     ---       #233
      0100279AH   LINE      CODE     ---       #234
      0100279FH   LINE      CODE     ---       #235
      010027A2H   LINE      CODE     ---       #236
      010027A9H   LINE      CODE     ---       #237
      010027ACH   LINE      CODE     ---       #238
      010027B1H   LINE      CODE     ---       #239
      010027B4H   LINE      CODE     ---       #240
      010027B9H   LINE      CODE     ---       #241
      010027BCH   LINE      CODE     ---       #243
      010027BEH   LINE      CODE     ---       #244
      ---         BLOCKEND  ---      ---       LVL=0

      0100273DH   BLOCK     CODE     ---       LVL=0
      00000007H   SYMBOL    DATA     BYTE      ch
      0100273DH   BLOCK     CODE     NEAR LAB  LVL=1
      00000008H   SYMBOL    DATA     WORD      Distance
      ---         BLOCKEND  ---      ---       LVL=1
      0100273DH   LINE      CODE     ---       #246
      0100273DH   LINE      CODE     ---       #247
      0100273DH   LINE      CODE     ---       #248
      01002742H   LINE      CODE     ---       #249
      01002745H   LINE      CODE     ---       #250
      01002745H   LINE      CODE     ---       #252
      0100274FH   LINE      CODE     ---       #253
      01002756H   LINE      CODE     ---       #254
      01002765H   LINE      CODE     ---       #256
      01002765H   LINE      CODE     ---       #257
      01002765H   LINE      CODE     ---       #258
      01002765H   LINE      CODE     ---       #260
      01002765H   LINE      CODE     ---       #261
      01002769H   LINE      CODE     ---       #262
      ---         BLOCKEND  ---      ---       LVL=0

      ---         MODULE    ---      ---       ?C_STARTUP
      01000000H   PUBLIC    CODE     ---       ?C_STARTUP

      ---         MODULE    ---      ---       ?C?CLDPTR
      01001FAAH   PUBLIC    CODE     ---       ?C?CLDPTR
LX51 LINKER/LOCATER V4.58                                                             10/24/2019  23:49:40  PAGE 44



      ---         MODULE    ---      ---       ?C?CLDOPTR
      01001FC3H   PUBLIC    CODE     ---       ?C?CLDOPTR

      ---         MODULE    ---      ---       ?C?CSTPTR
      01001FF0H   PUBLIC    CODE     ---       ?C?CSTPTR

      ---         MODULE    ---      ---       ?C?CSTOPTR
      01002002H   PUBLIC    CODE     ---       ?C?CSTOPTR

      ---         MODULE    ---      ---       ?C?UIDIV
      01002024H   PUBLIC    CODE     ---       ?C?UIDIV

      ---         MODULE    ---      ---       ?C?SIDIV
      01002079H   PUBLIC    CODE     ---       ?C?SIDIV

      ---         MODULE    ---      ---       ?C?ICALL
      010020AFH   PUBLIC    CODE     ---       ?C?ICALL
      010020B3H   PUBLIC    CODE     ---       ?C?ICALL2

      ---         MODULE    ---      ---       PRINTF
      00000008H   PUBLIC    DATA     ---       ?_PRINTF517?BYTE
      00000008H   PUBLIC    DATA     ---       ?_PRINTF?BYTE
      00000008H   PUBLIC    DATA     ---       ?_SPRINTF517?BYTE
      00000008H   PUBLIC    DATA     ---       ?_SPRINTF?BYTE
      01001CB0H   PUBLIC    CODE     ---       _PRINTF
      01001CB0H   PUBLIC    CODE     ---       _PRINTF517
      01001CAAH   PUBLIC    CODE     ---       _SPRINTF
      01001CAAH   PUBLIC    CODE     ---       _SPRINTF517

      ---         MODULE    ---      ---       ?C_INIT
      010023FDH   PUBLIC    CODE     ---       ?C_START

      ---         MODULE    ---      ---       ?C?PLDIIDATA
      010020B5H   PUBLIC    CODE     ---       ?C?PLDIIDATA

      ---         MODULE    ---      ---       ?C?CCASE
      010020C5H   PUBLIC    CODE     ---       ?C?CCASE



*** WARNING L16: UNCALLED FUNCTION, IGNORED FOR OVERLAY PROCESS
    NAME:    OLED_CLS/OLED

*** WARNING L16: UNCALLED FUNCTION, IGNORED FOR OVERLAY PROCESS
    NAME:    _OLED_P16X16CH/OLED

*** WARNING L16: UNCALLED FUNCTION, IGNORED FOR OVERLAY PROCESS
    NAME:    _DRAW_BMP/OLED

*** WARNING L16: UNCALLED FUNCTION, IGNORED FOR OVERLAY PROCESS
    NAME:    _GETADCRESULT/ADC

*** WARNING L16: UNCALLED FUNCTION, IGNORED FOR OVERLAY PROCESS
    NAME:    _UART1_SENDONEBYTE/UART

*** WARNING L16: UNCALLED FUNCTION, IGNORED FOR OVERLAY PROCESS
    NAME:    _TOF_SERIAL_WRITE/E2PROM

*** WARNING L16: UNCALLED FUNCTION, IGNORED FOR OVERLAY PROCESS
    NAME:    _TOF_SERIAL_READ/E2PROM

*** WARNING L16: UNCALLED FUNCTION, IGNORED FOR OVERLAY PROCESS
    NAME:    TESTE2PROM/E2PROM

LX51 LINKER/LOCATER V4.58                                                             10/24/2019  23:49:40  PAGE 45


*** WARNING L16: UNCALLED FUNCTION, IGNORED FOR OVERLAY PROCESS
    NAME:    IIC_NACK/TOF10120

******************************************************************************
* RESTRICTED VERSION WITH 0800H BYTE CODE SIZE LIMIT; USED: 1E2DH BYTE (377%) *
******************************************************************************

Program Size: data=95.1 xdata=0 const=0 code=9050


*** WARNING L16: UNCALLED FUNCTION, IGNORED FOR OVERLAY PROCESS
    NAME:    OLED_CLS/OLED

*** WARNING L16: UNCALLED FUNCTION, IGNORED FOR OVERLAY PROCESS
    NAME:    _OLED_P16X16CH/OLED

*** WARNING L16: UNCALLED FUNCTION, IGNORED FOR OVERLAY PROCESS
    NAME:    _DRAW_BMP/OLED

*** WARNING L16: UNCALLED FUNCTION, IGNORED FOR OVERLAY PROCESS
    NAME:    _GETADCRESULT/ADC

*** WARNING L16: UNCALLED FUNCTION, IGNORED FOR OVERLAY PROCESS
    NAME:    _UART1_SENDONEBYTE/UART

*** WARNING L16: UNCALLED FUNCTION, IGNORED FOR OVERLAY PROCESS
    NAME:    _TOF_SERIAL_WRITE/E2PROM

*** WARNING L16: UNCALLED FUNCTION, IGNORED FOR OVERLAY PROCESS
    NAME:    _TOF_SERIAL_READ/E2PROM

*** WARNING L16: UNCALLED FUNCTION, IGNORED FOR OVERLAY PROCESS
    NAME:    TESTE2PROM/E2PROM

*** WARNING L16: UNCALLED FUNCTION, IGNORED FOR OVERLAY PROCESS
    NAME:    IIC_NACK/TOF10120

*** ERROR L257: EXTENDED LINKER REQUIRES UPGRADE TO PK51
